Component: ARM Compiler 5.06 update 5 (build 528) Tool: armlink [4d35e2]

==============================================================================

Section Cross References

    startup_stm32f10x_hd.o(RESET) refers to startup_stm32f10x_hd.o(STACK) for __initial_sp
    startup_stm32f10x_hd.o(RESET) refers to startup_stm32f10x_hd.o(.text) for Reset_Handler
    startup_stm32f10x_hd.o(RESET) refers to stm32f10x_it.o(.text) for NMI_Handler
    startup_stm32f10x_hd.o(RESET) refers to port.o(.emb_text) for SVC_Handler
    startup_stm32f10x_hd.o(RESET) refers to hotshoe.o(.text) for EXTI1_IRQHandler
    startup_stm32f10x_hd.o(RESET) refers to pps.o(.text) for EXTI3_IRQHandler
    startup_stm32f10x_hd.o(RESET) refers to cocoguojia_usart.o(.text) for USART1_IRQHandler
    startup_stm32f10x_hd.o(RESET) refers to cocoguojia_sdio.o(.text) for SDIO_IRQHandler
    startup_stm32f10x_hd.o(.text) refers to system_stm32f10x.o(.text) for SystemInit
    startup_stm32f10x_hd.o(.text) refers to entry.o(.ARM.Collect$$$$00000000) for __main
    application.o(.text) refers to memseta.o(.text) for __aeabi_memclr
    application.o(.text) refers to strcpy.o(.text) for strcpy
    application.o(.text) refers to strcmp.o(.text) for strcmp
    application.o(.text) refers to cocoguojia_usart.o(.text) for UART_Printf
    application.o(.text) refers to tasks.o(.text) for uxTaskGetStackHighWaterMark
    application.o(.text) refers to printfa.o(i.__0sprintf) for __2sprintf
    application.o(.text) refers to psdk_app_func.o(.text) for PsdkAppFunc_PushMsgToFloatingWindow
    application.o(.text) refers to strlen.o(.text) for strlen
    application.o(.text) refers to psdk_osdk_func.o(.text) for PsdkOsdkFunc_TransferToOsdk
    application.o(.text) refers to cmsis_os.o(.text) for osDelay
    application.o(.text) refers to psdk_upper.o(.text) for PsdkUpper_ProcessReceiveData
    application.o(.text) refers to pps.o(.text) for PPS_Init
    application.o(.text) refers to hotshoe.o(.text) for HotShoe_Init
    application.o(.text) refers to psdk_msg_subcribe.o(.text) for PsdkMsgSub_Init
    application.o(.text) refers to psdk_payload_camera.o(.text) for PsdkCamera_Init
    application.o(.text) refers to psdk_payload_gimbal.o(.text) for PsdkGimbal_Init
    application.o(.text) refers to application.o(.constdata) for .constdata
    application.o(.text) refers to application.o(.conststring) for .conststring
    application.o(.text) refers to main.o(.data) for psdkTestTaskHandle
    application.o(.text) refers to application.o(.data) for .data
    application.o(.text) refers to application.o(.bss) for .bss
    application.o(.text) refers to u2rece_task.o(.bss) for g_photoPicNum
    application.o(.text) refers to u2rece_task.o(.data) for g_signalOrAutoModelFlag
    application.o(.text) refers to trigger_task.o(.data) for g_canPhotoStateFlag
    application.o(.text) refers to u2rece_task.o(.data) for g_tim5CatchNum
    application.o(.text) refers to u2rece_task.o(.data) for g_ppsRtkHealthNum
    application.o(.text) refers to test_app_func.o(.text) for Test_ReceiveFromMobileSDKFunc
    application.o(.text) refers to test_app_func.o(.constdata) for g_TestWidgetCount
    application.o(.text) refers to test_app_func.o(.data) for g_TestWidgetList
    application.o(.text) refers to test_msg_push.o(.constdata) for g_PushDataMsgCallbackList
    application.o(.text) refers to test_payload_cam_emu.o(.constdata) for g_testCameraHandler
    application.o(.text) refers to test_payload_gimbal_emu.o(.constdata) for g_testGimbalHandler
    application.o(.text) refers to test_osdk_func.o(.constdata) for g_testOsdkFuncHandler
    application.o(.text) refers to test_positioning.o(.text) for Test_RequestPosition
    application.o(.text) refers to cdcmple.o(.text) for __aeabi_cdcmpeq
    application.o(.text) refers to dadd.o(.text) for __aeabi_dsub
    application.o(.text) refers to cocoguojia_sdcard.o(.text) for cocoguojia_sdWrireGpsRtk
    application.o(.text) refers to test_positioning.o(.bss) for writesdpos
    application.o(.text) refers to pps.o(.data) for ppssignal
    application.o(.text) refers to test_positioning.o(.data) for timesigner
    application.o(.text) refers to cocoguojia_sdcard.o(.data) for g_nameFlag
    application.o(.text) refers to cocoguojia_sdcard.o(.bss) for g_gps002Table
    main.o(.text) refers to sys.o(.text) for Sys_Init
    main.o(.text) refers to bsp.o(.text) for BSP_Init
    main.o(.text) refers to application.o(.text) for application_init
    main.o(.text) refers to cmsis_os.o(.text) for osThreadCreate
    main.o(.text) refers to port.o(.text) for vPortEnterCritical
    main.o(.text) refers to event_groups.o(.text) for xEventGroupCreate
    main.o(.text) refers to main.o(.constdata) for .constdata
    main.o(.text) refers to main.o(.data) for .data
    main.o(.constdata) refers to main.o(.conststring) for .conststring
    main.o(.constdata) refers to main.o(.text) for APP_TASKCREATE
    main.o(.constdata) refers to oled_task.o(.text) for OLED_TASK
    main.o(.constdata) refers to key_task.o(.text) for KEY_TASK
    main.o(.constdata) refers to cam_task.o(.text) for CAM_TASK
    main.o(.constdata) refers to rgb_task.o(.text) for RGB_TASK
    main.o(.constdata) refers to runinit_task.o(.text) for RUNINIT_TASK
    main.o(.constdata) refers to u2rece_task.o(.text) for U2RECE_TASK
    main.o(.constdata) refers to trigger_task.o(.text) for TRIGGER_TASK
    main.o(.constdata) refers to u2send_task.o(.text) for U2SEND_TASK
    main.o(.constdata) refers to fan_task.o(.text) for FAN_TASK
    main.o(.constdata) refers to application.o(.text) for ProcessPsdkRecTask
    stm32f10x_it.o(.text) refers to tasks.o(.text) for xTaskGetSchedulerState
    stm32f10x_it.o(.text) refers to port.o(.text) for xPortSysTickHandler
    test_app_func.o(.text) refers to memcpya.o(.text) for __aeabi_memcpy
    test_app_func.o(.text) refers to cocoguojia_usart.o(.text) for UART_Printf
    test_app_func.o(.text) refers to strncpy.o(.text) for strncpy
    test_app_func.o(.text) refers to test_app_func.o(.bss) for .bss
    test_app_func.o(.text) refers to test_app_func.o(.constdata) for .constdata
    test_app_func.o(.text) refers to test_app_func.o(.data) for .data
    test_app_func.o(.constdata) refers to test_app_func.o(.conststring) for .conststring
    test_app_func.o(.data) refers to test_app_func.o(.constdata) for s_TestWidgetList
    test_msg_push.o(.text) refers to cmsis_os.o(.text) for osKernelSysTick
    test_msg_push.o(.text) refers to pps.o(.text) for PPS_GetNewestTriggerTime
    test_msg_push.o(.text) refers to test_positioning.o(.text) for Test_VerifyUtcTimestamp
    test_msg_push.o(.text) refers to test_msg_push.o(.bss) for .bss
    test_msg_push.o(.constdata) refers to test_msg_push.o(.text) for bandWidthMsgCallback
    test_payload_cam_emu.o(.text) refers to cocoguojia_usart.o(.text) for UART_Printf
    test_payload_cam_emu.o(.text) refers to cmsis_os.o(.text) for osKernelSysTick
    test_payload_cam_emu.o(.text) refers to test_payload_cam_emu.o(.constdata) for .constdata
    test_payload_cam_emu.o(.text) refers to test_payload_cam_emu.o(.data) for .data
    test_payload_cam_emu.o(.text) refers to u2rece_task.o(.data) for g_capture_FinishAndStartPhotoFlag
    test_payload_cam_emu.o(.text) refers to dflti.o(.text) for __aeabi_i2d
    test_payload_cam_emu.o(.text) refers to ddiv.o(.text) for __aeabi_ddiv
    test_payload_cam_emu.o(.text) refers to dadd.o(.text) for __aeabi_dadd
    test_payload_cam_emu.o(.text) refers to d2f.o(.text) for __aeabi_d2f
    test_payload_cam_emu.o(.constdata) refers to test_payload_cam_emu.o(.text) for CamEmu_SetCameraMode
    test_payload_gimbal_emu.o(.text) refers to dflti.o(.text) for __aeabi_i2d
    test_payload_gimbal_emu.o(.text) refers to dmul.o(.text) for __aeabi_dmul
    test_payload_gimbal_emu.o(.text) refers to dfixi.o(.text) for __aeabi_d2iz
    test_payload_gimbal_emu.o(.text) refers to cocoguojia_usart.o(.text) for UART_Printf
    test_payload_gimbal_emu.o(.text) refers to fmul.o(.text) for __aeabi_fmul
    test_payload_gimbal_emu.o(.text) refers to ffixi.o(.text) for __aeabi_f2iz
    test_payload_gimbal_emu.o(.text) refers to test_payload_gimbal_emu.o(.data) for .data
    test_payload_gimbal_emu.o(.text) refers to test_payload_gimbal_emu.o(.constdata) for .constdata
    test_payload_gimbal_emu.o(.constdata) refers to test_payload_gimbal_emu.o(.text) for GimbalEmu_GetGimbalParam
    test_osdk_func.o(.text) refers to memcpya.o(.text) for __aeabi_memcpy
    test_osdk_func.o(.text) refers to cocoguojia_usart.o(.text) for UART_Printf
    test_osdk_func.o(.text) refers to test_osdk_func.o(.constdata) for .constdata
    test_osdk_func.o(.constdata) refers to test_osdk_func.o(.text) for Test_ReceiveFromOnboardSDKFunc
    test_positioning.o(.text) refers to memseta.o(.text) for __aeabi_memclr4
    test_positioning.o(.text) refers to mktime.o(.text) for mktime
    test_positioning.o(.text) refers to localtime_r.o(.text) for localtime_r
    test_positioning.o(.text) refers to memcpya.o(.text) for __aeabi_memcpy4
    test_positioning.o(.text) refers to psdk_positioning.o(.text) for PsdkPositioning_GetPos
    test_positioning.o(.text) refers to cocoguojia_usart.o(.text) for UART_Printf
    test_positioning.o(.text) refers to test_positioning.o(.bss) for .bss
    test_positioning.o(.text) refers to test_positioning.o(.data) for .data
    test_positioning.o(.text) refers to u2rece_task.o(.data) for g_ppsRtkHealthNum
    test_positioning.o(.text) refers to test_positioning.o(.constdata) for .constdata
    pps.o(.text) refers to stm32f10x_rcc.o(.text) for RCC_APB2PeriphClockCmd
    pps.o(.text) refers to stm32f10x_gpio.o(.text) for GPIO_Init
    pps.o(.text) refers to stm32f10x_exti.o(.text) for EXTI_Init
    pps.o(.text) refers to misc.o(.text) for NVIC_Init
    pps.o(.text) refers to cmsis_os.o(.text) for osKernelSysTick
    pps.o(.text) refers to pps.o(.data) for .data
    hotshoe.o(.text) refers to stm32f10x_rcc.o(.text) for RCC_APB2PeriphClockCmd
    hotshoe.o(.text) refers to stm32f10x_gpio.o(.text) for GPIO_Init
    hotshoe.o(.text) refers to stm32f10x_exti.o(.text) for EXTI_Init
    hotshoe.o(.text) refers to misc.o(.text) for NVIC_Init
    hotshoe.o(.text) refers to cmsis_os.o(.text) for osSemaphoreCreate
    hotshoe.o(.text) refers to hotshoe.o(.data) for .data
    bsp.o(.text) refers to stm32f10x_rcc.o(.text) for RCC_APB2PeriphClockCmd
    bsp.o(.text) refers to cocoguojia_tim1pwm.o(.text) for cocoguojia_tim1Disable
    bsp.o(.text) refers to stm32f10x_gpio.o(.text) for GPIO_Init
    bsp.o(.text) refers to cocoguojia_init.o(.text) for cocoguojia_libInit
    cam_task.o(.text) refers to tasks.o(.text) for uxTaskGetStackHighWaterMark
    cam_task.o(.text) refers to cocoguojia_usart.o(.text) for UART_Printf
    cam_task.o(.text) refers to cmsis_os.o(.text) for osDelay
    cam_task.o(.text) refers to cocoguojia_tim1pwm.o(.text) for cocoguojia_tim1Enable
    cam_task.o(.text) refers to event_groups.o(.text) for xEventGroupWaitBits
    cam_task.o(.text) refers to main.o(.data) for CAM_TASK_Handle
    cam_task.o(.text) refers to cam_task.o(.data) for .data
    cam_task.o(.text) refers to cam_task.o(.constdata) for .constdata
    cam_task.o(.text) refers to u2rece_task.o(.data) for g_camTaskCanTakeOverFlag
    cam_task.o(.text) refers to u2rece_task.o(.data) for g_camLoseFlagTable
    cam_task.o(.text) refers to u2rece_task.o(.data) for g_offOrOnTureStateFlag
    key_task.o(.text) refers to cmsis_os.o(.text) for osKernelSysTick
    key_task.o(.text) refers to tasks.o(.text) for uxTaskGetStackHighWaterMark
    key_task.o(.text) refers to cocoguojia_usart.o(.text) for UART_Printf
    key_task.o(.text) refers to event_groups.o(.text) for xEventGroupSetBits
    key_task.o(.text) refers to main.o(.data) for KEY_TASK_Handle
    key_task.o(.text) refers to key_task.o(.data) for .data
    key_task.o(.text) refers to key_task.o(.constdata) for .constdata
    key_task.o(.text) refers to u2rece_task.o(.data) for g_setModelFlag
    oled_task.o(.text) refers to cocoguojia_oled.o(.text) for OLED_Clear
    oled_task.o(.text) refers to cmsis_os.o(.text) for osDelay
    oled_task.o(.text) refers to tasks.o(.text) for uxTaskGetStackHighWaterMark
    oled_task.o(.text) refers to cocoguojia_usart.o(.text) for UART_Printf
    oled_task.o(.text) refers to main.o(.data) for OLED_TASK_Handle
    oled_task.o(.text) refers to oled_task.o(.data) for .data
    oled_task.o(.text) refers to oled_task.o(.constdata) for .constdata
    oled_task.o(.text) refers to u2rece_task.o(.data) for g_oledStateFlag
    rgb_task.o(.text) refers to tasks.o(.text) for uxTaskGetStackHighWaterMark
    rgb_task.o(.text) refers to cocoguojia_usart.o(.text) for UART_Printf
    rgb_task.o(.text) refers to cmsis_os.o(.text) for osDelay
    rgb_task.o(.text) refers to main.o(.data) for CAM_TASK_Handle
    rgb_task.o(.text) refers to rgb_task.o(.data) for .data
    rgb_task.o(.text) refers to rgb_task.o(.constdata) for .constdata
    rgb_task.o(.text) refers to trigger_task.o(.data) for g_openCamStateFlag
    rgb_task.o(.text) refers to u2rece_task.o(.data) for g_temperatureDelayLastFlag
    rgb_task.o(.text) refers to u2rece_task.o(.data) for g_offOrOnTureStateFlag
    rgb_task.o(.text) refers to u2rece_task.o(.data) for g_camTaskCanTakeOverFlag
    rgb_task.o(.text) refers to u2rece_task.o(.data) for g_readingFlag
    rgb_task.o(.text) refers to u2rece_task.o(.data) for g_signalOrAutoModelFlag
    rgb_task.o(.text) refers to u2rece_task.o(.data) for g_capture_FinishAndStartPhotoFlag
    runinit_task.o(.text) refers to cmsis_os.o(.text) for osMessagePut
    runinit_task.o(.text) refers to cocoguojia_tim1pwm.o(.text) for cocoguojia_tim1Enable
    runinit_task.o(.text) refers to cocoguojia_24c02.o(.text) for cocoguojia_readSetParameter
    runinit_task.o(.text) refers to event_groups.o(.text) for xEventGroupWaitBits
    runinit_task.o(.text) refers to tasks.o(.text) for uxTaskGetStackHighWaterMark
    runinit_task.o(.text) refers to u2rece_task.o(.data) for g_offOrOnTureStateFlag
    runinit_task.o(.text) refers to main.o(.data) for oledShowMessageQHandle
    runinit_task.o(.text) refers to u2rece_task.o(.data) for g_signalOrAutoModelFlag
    runinit_task.o(.text) refers to u2rece_task.o(.data) for g_currentRowNum
    runinit_task.o(.text) refers to u2rece_task.o(.data) for g_setModelFlag
    runinit_task.o(.text) refers to u2rece_task.o(.data) for g_camPowerFlagTable
    runinit_task.o(.text) refers to runinit_task.o(.data) for .data
    runinit_task.o(.text) refers to runinit_task.o(.constdata) for .constdata
    runinit_task.o(.text) refers to cocoguojia_usart.o(.text) for UART_Printf
    runinit_task.o(.text) refers to u2rece_task.o(.data) for g_camTaskCanTakeOverFlag
    trigger_task.o(.text) refers to tasks.o(.text) for uxTaskGetStackHighWaterMark
    trigger_task.o(.text) refers to cocoguojia_usart.o(.text) for UART_Printf
    trigger_task.o(.text) refers to cmsis_os.o(.text) for osDelay
    trigger_task.o(.text) refers to port.o(.text) for vPortEnterCritical
    trigger_task.o(.text) refers to cocoguojia_ds18b20.o(.text) for cocoguojia_ds18b20GetTemp
    trigger_task.o(.text) refers to event_groups.o(.text) for xEventGroupWaitBits
    trigger_task.o(.text) refers to cocoguojia_tim1pwm.o(.text) for cocoguojia_tim1Enable
    trigger_task.o(.text) refers to main.o(.data) for TRIGGER_TASK_Handle
    trigger_task.o(.text) refers to trigger_task.o(.data) for .data
    trigger_task.o(.text) refers to trigger_task.o(.constdata) for .constdata
    trigger_task.o(.text) refers to u2rece_task.o(.data) for g_camTaskCanTakeOverFlag
    trigger_task.o(.text) refers to u2rece_task.o(.data) for g_offOrOnTureStateFlag
    trigger_task.o(.text) refers to u2rece_task.o(.data) for g_capture_FinishAndStartPhotoFlag
    trigger_task.o(.text) refers to u2rece_task.o(.data) for g_signalOrAutoModelFlag
    trigger_task.o(.text) refers to u2rece_task.o(.data) for g_readingFlag
    trigger_task.o(.text) refers to u2rece_task.o(.data) for g_tim5CatchNum
    trigger_task.o(.text) refers to u2rece_task.o(.data) for g_camRtkFlagTable
    trigger_task.o(.text) refers to fan_task.o(.data) for g_fanTurePhotoEnFlag
    trigger_task.o(.text) refers to u2rece_task.o(.data) for g_camPowerFlagTable
    trigger_task.o(.text) refers to rgb_task.o(.data) for g_shutPhotoFlag
    u2rece_task.o(.text) refers to tasks.o(.text) for uxTaskGetStackHighWaterMark
    u2rece_task.o(.text) refers to cocoguojia_usart.o(.text) for UART_Printf
    u2rece_task.o(.text) refers to cmsis_os.o(.text) for osDelay
    u2rece_task.o(.text) refers to main.o(.data) for U2RECE_TASK_Handle
    u2rece_task.o(.text) refers to u2rece_task.o(.data) for .data
    u2rece_task.o(.text) refers to u2rece_task.o(.constdata) for .constdata
    u2rece_task.o(.text) refers to u2rece_task.o(.bss) for .bss
    u2send_task.o(.text) refers to cmsis_os.o(.text) for osDelay
    u2send_task.o(.text) refers to cocoguojia_usart.o(.text) for cocoguojia_usartSendStr
    u2send_task.o(.text) refers to tasks.o(.text) for uxTaskGetStackHighWaterMark
    u2send_task.o(.text) refers to main.o(.data) for U2SEND_TASK_Handle
    u2send_task.o(.text) refers to u2send_task.o(.data) for .data
    u2send_task.o(.text) refers to u2send_task.o(.constdata) for .constdata
    fan_task.o(.text) refers to cmsis_os.o(.text) for osDelay
    fan_task.o(.text) refers to tasks.o(.text) for uxTaskGetStackHighWaterMark
    fan_task.o(.text) refers to cocoguojia_usart.o(.text) for UART_Printf
    fan_task.o(.text) refers to main.o(.data) for FAN_TASK_Handle
    fan_task.o(.text) refers to fan_task.o(.data) for .data
    fan_task.o(.text) refers to fan_task.o(.constdata) for .constdata
    fan_task.o(.text) refers to u2rece_task.o(.data) for g_readingFlag
    cocoguojia_24c02.o(.text) refers to stm32f10x_rcc.o(.text) for RCC_APB2PeriphClockCmd
    cocoguojia_24c02.o(.text) refers to stm32f10x_gpio.o(.text) for GPIO_Init
    cocoguojia_24c02.o(.text) refers to port.o(.text) for vPortEnterCritical
    cocoguojia_24c02.o(.text) refers to cocoguojia_24c02.o(.data) for .data
    cocoguojia_24c02.o(.text) refers to u2rece_task.o(.data) for g_signalOrAutoModelFlag
    cocoguojia_ds18b20.o(.text) refers to stm32f10x_rcc.o(.text) for RCC_APB2PeriphClockCmd
    cocoguojia_ds18b20.o(.text) refers to stm32f10x_gpio.o(.text) for GPIO_Init
    cocoguojia_ds18b20.o(.text) refers to dfltui.o(.text) for __aeabi_ui2d
    cocoguojia_ds18b20.o(.text) refers to dmul.o(.text) for __aeabi_dmul
    cocoguojia_ds18b20.o(.text) refers to dfixui.o(.text) for __aeabi_d2uiz
    cocoguojia_init.o(.text) refers to stm32f10x_rcc.o(.text) for RCC_APB2PeriphClockCmd
    cocoguojia_init.o(.text) refers to misc.o(.text) for NVIC_PriorityGroupConfig
    cocoguojia_init.o(.text) refers to cocoguojia_rgbled.o(.text) for cocoguojia_rgbledInit
    cocoguojia_init.o(.text) refers to cocoguojia_ds18b20.o(.text) for cocoguojia_ds18b20Init
    cocoguojia_init.o(.text) refers to cocoguojia_oled.o(.text) for cocoguojia_oledInit
    cocoguojia_init.o(.text) refers to cocoguojia_tim1pwm.o(.text) for cocoguojia_tim1Init
    cocoguojia_init.o(.text) refers to cocoguojia_24c02.o(.text) for cocoguojia_eeCheckOk
    cocoguojia_init.o(.text) refers to cocoguojia_sdio.o(.text) for cocoguojia_sdDeInit
    cocoguojia_oled.o(.text) refers to stm32f10x_gpio.o(.text) for GPIO_SetBits
    cocoguojia_oled.o(.text) refers to cocoguojia_oled.o(.constdata) for .constdata
    cocoguojia_oled.o(.text) refers to cocoguojia_oled.o(.data) for .data
    cocoguojia_oled.o(.text) refers to stm32f10x_rcc.o(.text) for RCC_APB2PeriphClockCmd
    cocoguojia_oled.o(.text) refers to u2rece_task.o(.data) for g_readingFlag
    cocoguojia_oled.o(.text) refers to trigger_task.o(.data) for g_openCamStateFlag
    cocoguojia_oled.o(.text) refers to fan_task.o(.data) for g_fanDs18b20Flag
    cocoguojia_oled.o(.text) refers to application.o(.data) for g_ds18b20ToShow
    cocoguojia_oled.o(.text) refers to u2rece_task.o(.data) for g_signalOrAutoModelFlag
    cocoguojia_oled.o(.text) refers to u2rece_task.o(.data) for g_ppsRtkHealthNum
    cocoguojia_oled.o(.text) refers to u2rece_task.o(.data) for g_tim5CatchNum
    cocoguojia_oled.o(.text) refers to u2rece_task.o(.bss) for g_photoPicNum
    cocoguojia_oled.o(.text) refers to u2rece_task.o(.data) for g_camPowerFlagTable
    cocoguojia_oled.o(.text) refers to u2rece_task.o(.data) for g_currentRowNum
    cocoguojia_rgbled.o(.text) refers to stm32f10x_rcc.o(.text) for RCC_APB2PeriphClockCmd
    cocoguojia_rgbled.o(.text) refers to stm32f10x_gpio.o(.text) for GPIO_Init
    cocoguojia_tim1pwm.o(.text) refers to stm32f10x_rcc.o(.text) for RCC_APB2PeriphClockCmd
    cocoguojia_tim1pwm.o(.text) refers to stm32f10x_gpio.o(.text) for GPIO_Init
    cocoguojia_tim1pwm.o(.text) refers to stm32f10x_tim.o(.text) for TIM_TimeBaseInit
    cocoguojia_usart.o(.text) refers to cocoguojia_usart_ringbuffer.o(.text) for RingBuf_Init
    cocoguojia_usart.o(.text) refers to stm32f10x_rcc.o(.text) for RCC_APB2PeriphClockCmd
    cocoguojia_usart.o(.text) refers to stm32f10x_gpio.o(.text) for GPIO_Init
    cocoguojia_usart.o(.text) refers to misc.o(.text) for NVIC_Init
    cocoguojia_usart.o(.text) refers to stm32f10x_usart.o(.text) for USART_Init
    cocoguojia_usart.o(.text) refers to cmsis_os.o(.text) for osMutexCreate
    cocoguojia_usart.o(.text) refers to strlen.o(.text) for strlen
    cocoguojia_usart.o(.text) refers to printfa.o(i.__0vsnprintf) for vsnprintf
    cocoguojia_usart.o(.text) refers to cocoguojia_usart.o(.data) for .data
    cocoguojia_usart.o(.text) refers to cocoguojia_usart.o(.bss) for .bss
    cocoguojia_usart_ringbuffer.o(.text) refers to memcpya.o(.text) for __aeabi_memcpy
    cocoguojia_sdcard.o(.text) refers to ff.o(.text) for f_mount
    cocoguojia_sdcard.o(.text) refers to atoi.o(.text) for atoi
    cocoguojia_sdcard.o(.text) refers to printfa.o(i.__0sprintf) for __2sprintf
    cocoguojia_sdcard.o(.text) refers to strlen.o(.text) for strlen
    cocoguojia_sdcard.o(.text) refers to port.o(.text) for vPortEnterCritical
    cocoguojia_sdcard.o(.text) refers to cocoguojia_sdcard.o(.bss) for .bss
    cocoguojia_sdcard.o(.text) refers to cocoguojia_sdcard.o(.data) for .data
    cocoguojia_sdio.o(.text) refers to stm32f10x_sdio.o(.text) for SDIO_ClockCmd
    cocoguojia_sdio.o(.text) refers to stm32f10x_rcc.o(.text) for RCC_AHBPeriphClockCmd
    cocoguojia_sdio.o(.text) refers to stm32f10x_gpio.o(.text) for GPIO_Init
    cocoguojia_sdio.o(.text) refers to misc.o(.text) for NVIC_Init
    cocoguojia_sdio.o(.text) refers to stm32f10x_dma.o(.text) for DMA_GetFlagStatus
    cocoguojia_sdio.o(.text) refers to system_stm32f10x.o(.data) for SystemCoreClock
    cocoguojia_sdio.o(.text) refers to cocoguojia_sdio.o(.data) for .data
    cocoguojia_sdio.o(.text) refers to cocoguojia_sdio.o(.bss) for .bss
    psdk_upper.o(.text) refers to strlen.o(.text) for strlen
    psdk_upper.o(.text) refers to memcpya.o(.text) for __aeabi_memcpy
    psdk_upper.o(.text) refers to heap_4.o(.text) for pvPortMalloc
    psdk_upper.o(.text) refers to psdk_md5.o(.text) for md5_init
    psdk_upper.o(.text) refers to psdk_proto.o(.text) for PsdkProto_SendAckData
    psdk_upper.o(.text) refers to psdk_upper.o(.bss) for .bss
    psdk_upper.o(.text) refers to psdk_upper.o(.data) for .data
    psdk_upper.o(.text) refers to psdk_upper.o(.constdata) for .constdata
    psdk_upper.o(.constdata) refers to psdk_upper.o(.text) for PsdkPayloadStateCmd_IdentityVerify
    psdk_app_func.o(.text) refers to psdk_proto.o(.text) for PsdkProto_SendAckData
    psdk_app_func.o(.text) refers to memseta.o(.text) for __aeabi_memclr
    psdk_app_func.o(.text) refers to strncpy.o(.text) for strncpy
    psdk_app_func.o(.text) refers to cocoguojia_usart.o(.text) for UART_Printf
    psdk_app_func.o(.text) refers to strlen.o(.text) for strlen
    psdk_app_func.o(.text) refers to psdk_app_func.o(.data) for .data
    psdk_app_func.o(.text) refers to psdk_app_func.o(.constdata) for .constdata
    psdk_app_func.o(.text) refers to psdk_app_func.o(.conststring) for .conststring
    psdk_app_func.o(.constdata) refers to psdk_app_func.o(.text) for AppFuncCmd_TT_AppToLoad
    psdk_msg_subcribe.o(.text) refers to psdk_proto.o(.text) for PsdkProto_SendAckData
    psdk_msg_subcribe.o(.text) refers to memseta.o(.text) for __aeabi_memclr4
    psdk_msg_subcribe.o(.text) refers to memcpya.o(.text) for __aeabi_memcpy4
    psdk_msg_subcribe.o(.text) refers to psdk_msg_subcribe.o(.bss) for .bss
    psdk_msg_subcribe.o(.text) refers to psdk_msg_subcribe.o(.constdata) for .constdata
    psdk_msg_subcribe.o(.constdata) refers to psdk_msg_subcribe.o(.text) for MsgPushCmd_PushBandWidth
    psdk_payload_camera.o(.text) refers to psdk_proto.o(.text) for PsdkProto_SendAckData
    psdk_payload_camera.o(.text) refers to psdk_payload_camera.o(.bss) for .bss
    psdk_payload_camera.o(.text) refers to memcpya.o(.text) for __aeabi_memcpy4
    psdk_payload_camera.o(.text) refers to psdk_payload_camera.o(.data) for .data
    psdk_payload_camera.o(.text) refers to psdk_payload_camera.o(.constdata) for .constdata
    psdk_payload_camera.o(.constdata) refers to psdk_payload_camera.o(.text) for CameraCmd_SupportState
    psdk_payload_gimbal.o(.text) refers to psdk_proto.o(.text) for PsdkProto_SendAckData
    psdk_payload_gimbal.o(.text) refers to memcpya.o(.text) for __aeabi_memcpy4
    psdk_payload_gimbal.o(.text) refers to psdk_payload_gimbal.o(.bss) for .bss
    psdk_payload_gimbal.o(.text) refers to psdk_payload_gimbal.o(.data) for .data
    psdk_payload_gimbal.o(.text) refers to psdk_payload_gimbal.o(.constdata) for .constdata
    psdk_payload_gimbal.o(.constdata) refers to psdk_payload_gimbal.o(.text) for GimbalCmd_GetGimbalState
    psdk_osdk_func.o(.text) refers to psdk_proto.o(.text) for PsdkProto_RegCmdSetHandler
    psdk_osdk_func.o(.text) refers to psdk_osdk_func.o(.data) for .data
    psdk_osdk_func.o(.text) refers to psdk_osdk_func.o(.constdata) for .constdata
    psdk_osdk_func.o(.constdata) refers to psdk_osdk_func.o(.text) for OsdkFuncCmd_TT_OsdkToLoad
    psdk_positioning.o(.text) refers to psdk_proto.o(.text) for PsdkProt_GetCurrentSendSeq
    psdk_aes.o(.text) refers to memcpya.o(.text) for __aeabi_memcpy4
    psdk_aes.o(.text) refers to psdk_aes.o(.constdata) for .constdata
    psdk_aes.o(.text) refers to psdk_debug.o(.text) for PsdkDebug_AssertFailed
    psdk_crc.o(.text) refers to psdk_debug.o(.text) for PsdkDebug_AssertFailed
    psdk_crc.o(.text) refers to psdk_crc.o(.constdata) for .constdata
    psdk_crc.o(.text) refers to psdk_crc.o(.data) for .data
    psdk_md5.o(.text) refers to memseta.o(.text) for __aeabi_memclr4
    psdk_proto.o(.text) refers to memcpya.o(.text) for __aeabi_memcpy
    psdk_proto.o(.text) refers to psdk_aes.o(.text) for PsdkAes_Decrypt
    psdk_proto.o(.text) refers to psdk_crc.o(.text) for PsdkCrc_Crc16
    psdk_proto.o(.text) refers to heap_4.o(.text) for pvPortMalloc
    psdk_proto.o(.text) refers to memseta.o(.text) for __aeabi_memclr
    psdk_proto.o(.text) refers to psdk_arch_sys.o(.text) for PsdkSys_MutexLock
    psdk_proto.o(.text) refers to cocoguojia_usart.o(.text) for UART_Printf
    psdk_proto.o(.text) refers to psdk_proto_parse.o(.text) for PsdkProtParse_Init
    psdk_proto.o(.text) refers to psdk_proto.o(.constdata) for .constdata
    psdk_proto.o(.text) refers to psdk_proto.o(.conststring) for .conststring
    psdk_debug.o(.text) refers to cocoguojia_usart.o(.text) for UART_Printf
    psdk_debug.o(.text) refers to psdk_debug.o(.constdata) for .constdata
    psdk_proto_parse.o(.text) refers to psdk_crc.o(.text) for PsdkCrc_Crc16
    psdk_arch_sys.o(.text) refers to cmsis_os.o(.text) for osMutexCreate
    psdk_arch_sys.o(.text) refers to psdk_debug.o(.text) for PsdkDebug_AssertFailed
    cmsis_os.o(.text) refers to tasks.o(.text) for vTaskStartScheduler
    cmsis_os.o(.text) refers to queue.o(.text) for xQueueCreateMutex
    cmsis_os.o(.text) refers to heap_4.o(.text) for pvPortMalloc
    cmsis_os.o(.text) refers to port.o(.text) for vPortEnterCritical
    event_groups.o(.text) refers to heap_4.o(.text) for pvPortMalloc
    event_groups.o(.text) refers to list.o(.text) for vListInitialise
    event_groups.o(.text) refers to tasks.o(.text) for vTaskSuspendAll
    event_groups.o(.text) refers to port.o(.text) for vPortEnterCritical
    queue.o(.text) refers to port.o(.text) for vPortEnterCritical
    queue.o(.text) refers to list.o(.text) for vListInitialise
    queue.o(.text) refers to tasks.o(.text) for xTaskRemoveFromEventList
    queue.o(.text) refers to heap_4.o(.text) for pvPortMalloc
    queue.o(.text) refers to memcpya.o(.text) for __aeabi_memcpy
    queue.o(.text) refers to queue.o(.bss) for .bss
    tasks.o(.text) refers to list.o(.text) for vListInitialise
    tasks.o(.text) refers to port.o(.text) for vPortEnterCritical
    tasks.o(.text) refers to memseta.o(.text) for __aeabi_memset
    tasks.o(.text) refers to heap_4.o(.text) for pvPortMalloc
    tasks.o(.text) refers to application.o(.text) for vApplicationTickHook
    tasks.o(.text) refers to tasks.o(.bss) for .bss
    tasks.o(.text) refers to tasks.o(.data) for .data
    tasks.o(.text) refers to strcpy.o(.text) for strcpy
    tasks.o(.text) refers to strlen.o(.text) for strlen
    tasks.o(.text) refers to printfa.o(i.__0sprintf) for __2sprintf
    heap_4.o(.text) refers to tasks.o(.text) for vTaskSuspendAll
    heap_4.o(.text) refers to heap_4.o(.data) for .data
    heap_4.o(.text) refers to heap_4.o(.bss) for .bss
    port.o(.emb_text) refers to tasks.o(.text) for vTaskSwitchContext
    port.o(.emb_text) refers to tasks.o(.data) for pxCurrentTCB
    port.o(.text) refers to port.o(.emb_text) for __asm___6_port_c_39a90d8d__prvStartFirstTask
    port.o(.text) refers to tasks.o(.text) for xTaskIncrementTick
    port.o(.text) refers to port.o(.data) for .data
    port.o(.text) refers to system_stm32f10x.o(.data) for SystemCoreClock
    system_stm32f10x.o(.text) refers to system_stm32f10x.o(.data) for .data
    stm32f10x_gpio.o(.text) refers to stm32f10x_rcc.o(.text) for RCC_APB2PeriphResetCmd
    stm32f10x_rcc.o(.text) refers to stm32f10x_rcc.o(.data) for .data
    stm32f10x_tim.o(.text) refers to stm32f10x_rcc.o(.text) for RCC_APB2PeriphResetCmd
    stm32f10x_usart.o(.text) refers to stm32f10x_rcc.o(.text) for RCC_APB2PeriphResetCmd
    diskio.o(.text) refers to cocoguojia_sdio.o(.text) for SD_Init
    diskio.o(.text) refers to memcpya.o(.text) for __aeabi_memcpy
    diskio.o(.text) refers to uldiv.o(.text) for __aeabi_uldivmod
    diskio.o(.text) refers to cocoguojia_sdio.o(.bss) for SDCardInfo
    ff.o(.text) refers to diskio.o(.text) for disk_write
    ff.o(.text) refers to cc936.o(.text) for ff_wtoupper
    ff.o(.text) refers to ff.o(.constdata) for .constdata
    ff.o(.text) refers to ff.o(.data) for .data
    cc936.o(.text) refers to cc936.o(.constdata) for .constdata
    entry.o(.ARM.Collect$$$$00000000) refers (Special) to entry10a.o(.ARM.Collect$$$$0000000D) for __rt_final_cpp
    entry.o(.ARM.Collect$$$$00000000) refers (Special) to entry11a.o(.ARM.Collect$$$$0000000F) for __rt_final_exit
    entry.o(.ARM.Collect$$$$00000000) refers (Special) to entry7b.o(.ARM.Collect$$$$00000008) for _main_clock
    entry.o(.ARM.Collect$$$$00000000) refers (Special) to entry8b.o(.ARM.Collect$$$$0000000A) for _main_cpp_init
    entry.o(.ARM.Collect$$$$00000000) refers (Special) to entry9a.o(.ARM.Collect$$$$0000000B) for _main_init
    entry.o(.ARM.Collect$$$$00000000) refers (Special) to entry5.o(.ARM.Collect$$$$00000004) for _main_scatterload
    entry.o(.ARM.Collect$$$$00000000) refers (Special) to entry2.o(.ARM.Collect$$$$00000001) for _main_stk
    uldiv.o(.text) refers to llushr.o(.text) for __aeabi_llsr
    uldiv.o(.text) refers to llshl.o(.text) for __aeabi_llsl
    localtime_w.o(.text) refers to localtime_r.o(.text) for _localtime
    localtime_w.o(.text) refers to localtime_w.o(.bss) for .bss
    localtime_r.o(.text) refers to localtime_r.o(.constdata) for .constdata
    mktime.o(.text) refers to localtime_r.o(.text) for _localtime
    mktime.o(.text) refers to mktime.o(.constdata) for .constdata
    printfb.o(i.__0fprintf$bare) refers to printfb.o(i._printf_core) for _printf_core
    printfb.o(i.__0fprintf$bare) refers to fputc.o(i.fputc) for fputc
    printfb.o(i.__0printf$bare) refers to printfb.o(i._printf_core) for _printf_core
    printfb.o(i.__0printf$bare) refers to fputc.o(i.fputc) for fputc
    printfb.o(i.__0printf$bare) refers to stdout.o(.data) for __stdout
    printfb.o(i.__0snprintf$bare) refers to printfb.o(i._printf_core) for _printf_core
    printfb.o(i.__0snprintf$bare) refers to printfb.o(i._snputc) for _snputc
    printfb.o(i.__0sprintf$bare) refers to printfb.o(i._printf_core) for _printf_core
    printfb.o(i.__0sprintf$bare) refers to printfb.o(i._sputc) for _sputc
    printfb.o(i.__0vfprintf$bare) refers to printfb.o(i._printf_core) for _printf_core
    printfb.o(i.__0vfprintf$bare) refers to fputc.o(i.fputc) for fputc
    printfb.o(i.__0vprintf$bare) refers to printfb.o(i._printf_core) for _printf_core
    printfb.o(i.__0vprintf$bare) refers to fputc.o(i.fputc) for fputc
    printfb.o(i.__0vprintf$bare) refers to stdout.o(.data) for __stdout
    printfb.o(i.__0vsnprintf$bare) refers to printfb.o(i._printf_core) for _printf_core
    printfb.o(i.__0vsnprintf$bare) refers to printfb.o(i._snputc) for _snputc
    printfb.o(i.__0vsprintf$bare) refers to printfb.o(i._printf_core) for _printf_core
    printfb.o(i.__0vsprintf$bare) refers to printfb.o(i._sputc) for _sputc
    printf0.o(i.__0fprintf$0) refers to printf0.o(i._printf_core) for _printf_core
    printf0.o(i.__0fprintf$0) refers to fputc.o(i.fputc) for fputc
    printf0.o(i.__0printf$0) refers to printf0.o(i._printf_core) for _printf_core
    printf0.o(i.__0printf$0) refers to fputc.o(i.fputc) for fputc
    printf0.o(i.__0printf$0) refers to stdout.o(.data) for __stdout
    printf0.o(i.__0snprintf$0) refers to printf0.o(i._printf_core) for _printf_core
    printf0.o(i.__0snprintf$0) refers to printf0.o(i._snputc) for _snputc
    printf0.o(i.__0sprintf$0) refers to printf0.o(i._printf_core) for _printf_core
    printf0.o(i.__0sprintf$0) refers to printf0.o(i._sputc) for _sputc
    printf0.o(i.__0vfprintf$0) refers to printf0.o(i._printf_core) for _printf_core
    printf0.o(i.__0vfprintf$0) refers to fputc.o(i.fputc) for fputc
    printf0.o(i.__0vprintf$0) refers to printf0.o(i._printf_core) for _printf_core
    printf0.o(i.__0vprintf$0) refers to fputc.o(i.fputc) for fputc
    printf0.o(i.__0vprintf$0) refers to stdout.o(.data) for __stdout
    printf0.o(i.__0vsnprintf$0) refers to printf0.o(i._printf_core) for _printf_core
    printf0.o(i.__0vsnprintf$0) refers to printf0.o(i._snputc) for _snputc
    printf0.o(i.__0vsprintf$0) refers to printf0.o(i._printf_core) for _printf_core
    printf0.o(i.__0vsprintf$0) refers to printf0.o(i._sputc) for _sputc
    printf1.o(i.__0fprintf$1) refers to printf1.o(i._printf_core) for _printf_core
    printf1.o(i.__0fprintf$1) refers to fputc.o(i.fputc) for fputc
    printf1.o(i.__0printf$1) refers to printf1.o(i._printf_core) for _printf_core
    printf1.o(i.__0printf$1) refers to fputc.o(i.fputc) for fputc
    printf1.o(i.__0printf$1) refers to stdout.o(.data) for __stdout
    printf1.o(i.__0snprintf$1) refers to printf1.o(i._printf_core) for _printf_core
    printf1.o(i.__0snprintf$1) refers to printf1.o(i._snputc) for _snputc
    printf1.o(i.__0sprintf$1) refers to printf1.o(i._printf_core) for _printf_core
    printf1.o(i.__0sprintf$1) refers to printf1.o(i._sputc) for _sputc
    printf1.o(i.__0vfprintf$1) refers to printf1.o(i._printf_core) for _printf_core
    printf1.o(i.__0vfprintf$1) refers to fputc.o(i.fputc) for fputc
    printf1.o(i.__0vprintf$1) refers to printf1.o(i._printf_core) for _printf_core
    printf1.o(i.__0vprintf$1) refers to fputc.o(i.fputc) for fputc
    printf1.o(i.__0vprintf$1) refers to stdout.o(.data) for __stdout
    printf1.o(i.__0vsnprintf$1) refers to printf1.o(i._printf_core) for _printf_core
    printf1.o(i.__0vsnprintf$1) refers to printf1.o(i._snputc) for _snputc
    printf1.o(i.__0vsprintf$1) refers to printf1.o(i._printf_core) for _printf_core
    printf1.o(i.__0vsprintf$1) refers to printf1.o(i._sputc) for _sputc
    printf1.o(i._printf_core) refers to uidiv.o(.text) for __aeabi_uidivmod
    printf2.o(i.__0fprintf$2) refers to printf2.o(i._printf_core) for _printf_core
    printf2.o(i.__0fprintf$2) refers to fputc.o(i.fputc) for fputc
    printf2.o(i.__0printf$2) refers to printf2.o(i._printf_core) for _printf_core
    printf2.o(i.__0printf$2) refers to fputc.o(i.fputc) for fputc
    printf2.o(i.__0printf$2) refers to stdout.o(.data) for __stdout
    printf2.o(i.__0snprintf$2) refers to printf2.o(i._printf_core) for _printf_core
    printf2.o(i.__0snprintf$2) refers to printf2.o(i._snputc) for _snputc
    printf2.o(i.__0sprintf$2) refers to printf2.o(i._printf_core) for _printf_core
    printf2.o(i.__0sprintf$2) refers to printf2.o(i._sputc) for _sputc
    printf2.o(i.__0vfprintf$2) refers to printf2.o(i._printf_core) for _printf_core
    printf2.o(i.__0vfprintf$2) refers to fputc.o(i.fputc) for fputc
    printf2.o(i.__0vprintf$2) refers to printf2.o(i._printf_core) for _printf_core
    printf2.o(i.__0vprintf$2) refers to fputc.o(i.fputc) for fputc
    printf2.o(i.__0vprintf$2) refers to stdout.o(.data) for __stdout
    printf2.o(i.__0vsnprintf$2) refers to printf2.o(i._printf_core) for _printf_core
    printf2.o(i.__0vsnprintf$2) refers to printf2.o(i._snputc) for _snputc
    printf2.o(i.__0vsprintf$2) refers to printf2.o(i._printf_core) for _printf_core
    printf2.o(i.__0vsprintf$2) refers to printf2.o(i._sputc) for _sputc
    printf3.o(i.__0fprintf$3) refers to printf3.o(i._printf_core) for _printf_core
    printf3.o(i.__0fprintf$3) refers to fputc.o(i.fputc) for fputc
    printf3.o(i.__0printf$3) refers to printf3.o(i._printf_core) for _printf_core
    printf3.o(i.__0printf$3) refers to fputc.o(i.fputc) for fputc
    printf3.o(i.__0printf$3) refers to stdout.o(.data) for __stdout
    printf3.o(i.__0snprintf$3) refers to printf3.o(i._printf_core) for _printf_core
    printf3.o(i.__0snprintf$3) refers to printf3.o(i._snputc) for _snputc
    printf3.o(i.__0sprintf$3) refers to printf3.o(i._printf_core) for _printf_core
    printf3.o(i.__0sprintf$3) refers to printf3.o(i._sputc) for _sputc
    printf3.o(i.__0vfprintf$3) refers to printf3.o(i._printf_core) for _printf_core
    printf3.o(i.__0vfprintf$3) refers to fputc.o(i.fputc) for fputc
    printf3.o(i.__0vprintf$3) refers to printf3.o(i._printf_core) for _printf_core
    printf3.o(i.__0vprintf$3) refers to fputc.o(i.fputc) for fputc
    printf3.o(i.__0vprintf$3) refers to stdout.o(.data) for __stdout
    printf3.o(i.__0vsnprintf$3) refers to printf3.o(i._printf_core) for _printf_core
    printf3.o(i.__0vsnprintf$3) refers to printf3.o(i._snputc) for _snputc
    printf3.o(i.__0vsprintf$3) refers to printf3.o(i._printf_core) for _printf_core
    printf3.o(i.__0vsprintf$3) refers to printf3.o(i._sputc) for _sputc
    printf3.o(i._printf_core) refers to uidiv.o(.text) for __aeabi_uidivmod
    printf4.o(i.__0fprintf$4) refers to printf4.o(i._printf_core) for _printf_core
    printf4.o(i.__0fprintf$4) refers to fputc.o(i.fputc) for fputc
    printf4.o(i.__0printf$4) refers to printf4.o(i._printf_core) for _printf_core
    printf4.o(i.__0printf$4) refers to fputc.o(i.fputc) for fputc
    printf4.o(i.__0printf$4) refers to stdout.o(.data) for __stdout
    printf4.o(i.__0snprintf$4) refers to printf4.o(i._printf_core) for _printf_core
    printf4.o(i.__0snprintf$4) refers to printf4.o(i._snputc) for _snputc
    printf4.o(i.__0sprintf$4) refers to printf4.o(i._printf_core) for _printf_core
    printf4.o(i.__0sprintf$4) refers to printf4.o(i._sputc) for _sputc
    printf4.o(i.__0vfprintf$4) refers to printf4.o(i._printf_core) for _printf_core
    printf4.o(i.__0vfprintf$4) refers to fputc.o(i.fputc) for fputc
    printf4.o(i.__0vprintf$4) refers to printf4.o(i._printf_core) for _printf_core
    printf4.o(i.__0vprintf$4) refers to fputc.o(i.fputc) for fputc
    printf4.o(i.__0vprintf$4) refers to stdout.o(.data) for __stdout
    printf4.o(i.__0vsnprintf$4) refers to printf4.o(i._printf_core) for _printf_core
    printf4.o(i.__0vsnprintf$4) refers to printf4.o(i._snputc) for _snputc
    printf4.o(i.__0vsprintf$4) refers to printf4.o(i._printf_core) for _printf_core
    printf4.o(i.__0vsprintf$4) refers to printf4.o(i._sputc) for _sputc
    printf4.o(i._printf_core) refers to uldiv.o(.text) for __aeabi_uldivmod
    printf5.o(i.__0fprintf$5) refers to printf5.o(i._printf_core) for _printf_core
    printf5.o(i.__0fprintf$5) refers to fputc.o(i.fputc) for fputc
    printf5.o(i.__0printf$5) refers to printf5.o(i._printf_core) for _printf_core
    printf5.o(i.__0printf$5) refers to fputc.o(i.fputc) for fputc
    printf5.o(i.__0printf$5) refers to stdout.o(.data) for __stdout
    printf5.o(i.__0snprintf$5) refers to printf5.o(i._printf_core) for _printf_core
    printf5.o(i.__0snprintf$5) refers to printf5.o(i._snputc) for _snputc
    printf5.o(i.__0sprintf$5) refers to printf5.o(i._printf_core) for _printf_core
    printf5.o(i.__0sprintf$5) refers to printf5.o(i._sputc) for _sputc
    printf5.o(i.__0vfprintf$5) refers to printf5.o(i._printf_core) for _printf_core
    printf5.o(i.__0vfprintf$5) refers to fputc.o(i.fputc) for fputc
    printf5.o(i.__0vprintf$5) refers to printf5.o(i._printf_core) for _printf_core
    printf5.o(i.__0vprintf$5) refers to fputc.o(i.fputc) for fputc
    printf5.o(i.__0vprintf$5) refers to stdout.o(.data) for __stdout
    printf5.o(i.__0vsnprintf$5) refers to printf5.o(i._printf_core) for _printf_core
    printf5.o(i.__0vsnprintf$5) refers to printf5.o(i._snputc) for _snputc
    printf5.o(i.__0vsprintf$5) refers to printf5.o(i._printf_core) for _printf_core
    printf5.o(i.__0vsprintf$5) refers to printf5.o(i._sputc) for _sputc
    printf5.o(i._printf_core) refers to uldiv.o(.text) for __aeabi_uldivmod
    printf6.o(i.__0fprintf$6) refers to printf6.o(i._printf_core) for _printf_core
    printf6.o(i.__0fprintf$6) refers to fputc.o(i.fputc) for fputc
    printf6.o(i.__0printf$6) refers to printf6.o(i._printf_core) for _printf_core
    printf6.o(i.__0printf$6) refers to fputc.o(i.fputc) for fputc
    printf6.o(i.__0printf$6) refers to stdout.o(.data) for __stdout
    printf6.o(i.__0snprintf$6) refers to printf6.o(i._printf_core) for _printf_core
    printf6.o(i.__0snprintf$6) refers to printf6.o(i._snputc) for _snputc
    printf6.o(i.__0sprintf$6) refers to printf6.o(i._printf_core) for _printf_core
    printf6.o(i.__0sprintf$6) refers to printf6.o(i._sputc) for _sputc
    printf6.o(i.__0vfprintf$6) refers to printf6.o(i._printf_core) for _printf_core
    printf6.o(i.__0vfprintf$6) refers to fputc.o(i.fputc) for fputc
    printf6.o(i.__0vprintf$6) refers to printf6.o(i._printf_core) for _printf_core
    printf6.o(i.__0vprintf$6) refers to fputc.o(i.fputc) for fputc
    printf6.o(i.__0vprintf$6) refers to stdout.o(.data) for __stdout
    printf6.o(i.__0vsnprintf$6) refers to printf6.o(i._printf_core) for _printf_core
    printf6.o(i.__0vsnprintf$6) refers to printf6.o(i._snputc) for _snputc
    printf6.o(i.__0vsprintf$6) refers to printf6.o(i._printf_core) for _printf_core
    printf6.o(i.__0vsprintf$6) refers to printf6.o(i._sputc) for _sputc
    printf6.o(i._printf_core) refers to printf6.o(i._printf_pre_padding) for _printf_pre_padding
    printf6.o(i._printf_core) refers to uidiv.o(.text) for __aeabi_uidivmod
    printf6.o(i._printf_core) refers to printf6.o(i._printf_post_padding) for _printf_post_padding
    printf7.o(i.__0fprintf$7) refers to printf7.o(i._printf_core) for _printf_core
    printf7.o(i.__0fprintf$7) refers to fputc.o(i.fputc) for fputc
    printf7.o(i.__0printf$7) refers to printf7.o(i._printf_core) for _printf_core
    printf7.o(i.__0printf$7) refers to fputc.o(i.fputc) for fputc
    printf7.o(i.__0printf$7) refers to stdout.o(.data) for __stdout
    printf7.o(i.__0snprintf$7) refers to printf7.o(i._printf_core) for _printf_core
    printf7.o(i.__0snprintf$7) refers to printf7.o(i._snputc) for _snputc
    printf7.o(i.__0sprintf$7) refers to printf7.o(i._printf_core) for _printf_core
    printf7.o(i.__0sprintf$7) refers to printf7.o(i._sputc) for _sputc
    printf7.o(i.__0vfprintf$7) refers to printf7.o(i._printf_core) for _printf_core
    printf7.o(i.__0vfprintf$7) refers to fputc.o(i.fputc) for fputc
    printf7.o(i.__0vprintf$7) refers to printf7.o(i._printf_core) for _printf_core
    printf7.o(i.__0vprintf$7) refers to fputc.o(i.fputc) for fputc
    printf7.o(i.__0vprintf$7) refers to stdout.o(.data) for __stdout
    printf7.o(i.__0vsnprintf$7) refers to printf7.o(i._printf_core) for _printf_core
    printf7.o(i.__0vsnprintf$7) refers to printf7.o(i._snputc) for _snputc
    printf7.o(i.__0vsprintf$7) refers to printf7.o(i._printf_core) for _printf_core
    printf7.o(i.__0vsprintf$7) refers to printf7.o(i._sputc) for _sputc
    printf7.o(i._printf_core) refers to printf7.o(i._printf_pre_padding) for _printf_pre_padding
    printf7.o(i._printf_core) refers to uldiv.o(.text) for __aeabi_uldivmod
    printf7.o(i._printf_core) refers to printf7.o(i._printf_post_padding) for _printf_post_padding
    printf8.o(i.__0fprintf$8) refers to printf8.o(i._printf_core) for _printf_core
    printf8.o(i.__0fprintf$8) refers to fputc.o(i.fputc) for fputc
    printf8.o(i.__0printf$8) refers to printf8.o(i._printf_core) for _printf_core
    printf8.o(i.__0printf$8) refers to fputc.o(i.fputc) for fputc
    printf8.o(i.__0printf$8) refers to stdout.o(.data) for __stdout
    printf8.o(i.__0snprintf$8) refers to printf8.o(i._printf_core) for _printf_core
    printf8.o(i.__0snprintf$8) refers to printf8.o(i._snputc) for _snputc
    printf8.o(i.__0sprintf$8) refers to printf8.o(i._printf_core) for _printf_core
    printf8.o(i.__0sprintf$8) refers to printf8.o(i._sputc) for _sputc
    printf8.o(i.__0vfprintf$8) refers to printf8.o(i._printf_core) for _printf_core
    printf8.o(i.__0vfprintf$8) refers to fputc.o(i.fputc) for fputc
    printf8.o(i.__0vprintf$8) refers to printf8.o(i._printf_core) for _printf_core
    printf8.o(i.__0vprintf$8) refers to fputc.o(i.fputc) for fputc
    printf8.o(i.__0vprintf$8) refers to stdout.o(.data) for __stdout
    printf8.o(i.__0vsnprintf$8) refers to printf8.o(i._printf_core) for _printf_core
    printf8.o(i.__0vsnprintf$8) refers to printf8.o(i._snputc) for _snputc
    printf8.o(i.__0vsprintf$8) refers to printf8.o(i._printf_core) for _printf_core
    printf8.o(i.__0vsprintf$8) refers to printf8.o(i._sputc) for _sputc
    printf8.o(i._printf_core) refers to printf8.o(i._printf_pre_padding) for _printf_pre_padding
    printf8.o(i._printf_core) refers to uldiv.o(.text) for __aeabi_uldivmod
    printf8.o(i._printf_core) refers to printf8.o(i._printf_post_padding) for _printf_post_padding
    printfa.o(i.__0fprintf) refers (Special) to iusefp.o(.text) for __I$use$fp
    printfa.o(i.__0fprintf) refers to printfa.o(i._printf_core) for _printf_core
    printfa.o(i.__0fprintf) refers to fputc.o(i.fputc) for fputc
    printfa.o(i.__0printf) refers (Special) to iusefp.o(.text) for __I$use$fp
    printfa.o(i.__0printf) refers to printfa.o(i._printf_core) for _printf_core
    printfa.o(i.__0printf) refers to fputc.o(i.fputc) for fputc
    printfa.o(i.__0printf) refers to stdout.o(.data) for __stdout
    printfa.o(i.__0snprintf) refers (Special) to iusefp.o(.text) for __I$use$fp
    printfa.o(i.__0snprintf) refers to printfa.o(i._printf_core) for _printf_core
    printfa.o(i.__0snprintf) refers to printfa.o(i._snputc) for _snputc
    printfa.o(i.__0sprintf) refers (Special) to iusefp.o(.text) for __I$use$fp
    printfa.o(i.__0sprintf) refers to printfa.o(i._printf_core) for _printf_core
    printfa.o(i.__0sprintf) refers to printfa.o(i._sputc) for _sputc
    printfa.o(i.__0vfprintf) refers (Special) to iusefp.o(.text) for __I$use$fp
    printfa.o(i.__0vfprintf) refers to printfa.o(i._printf_core) for _printf_core
    printfa.o(i.__0vfprintf) refers to fputc.o(i.fputc) for fputc
    printfa.o(i.__0vprintf) refers (Special) to iusefp.o(.text) for __I$use$fp
    printfa.o(i.__0vprintf) refers to printfa.o(i._printf_core) for _printf_core
    printfa.o(i.__0vprintf) refers to fputc.o(i.fputc) for fputc
    printfa.o(i.__0vprintf) refers to stdout.o(.data) for __stdout
    printfa.o(i.__0vsnprintf) refers (Special) to iusefp.o(.text) for __I$use$fp
    printfa.o(i.__0vsnprintf) refers to printfa.o(i._printf_core) for _printf_core
    printfa.o(i.__0vsnprintf) refers to printfa.o(i._snputc) for _snputc
    printfa.o(i.__0vsprintf) refers (Special) to iusefp.o(.text) for __I$use$fp
    printfa.o(i.__0vsprintf) refers to printfa.o(i._printf_core) for _printf_core
    printfa.o(i.__0vsprintf) refers to printfa.o(i._sputc) for _sputc
    printfa.o(i._fp_digits) refers (Special) to iusefp.o(.text) for __I$use$fp
    printfa.o(i._fp_digits) refers to dmul.o(.text) for __aeabi_dmul
    printfa.o(i._fp_digits) refers to ddiv.o(.text) for __aeabi_ddiv
    printfa.o(i._fp_digits) refers to cdrcmple.o(.text) for __aeabi_cdrcmple
    printfa.o(i._fp_digits) refers to dadd.o(.text) for __aeabi_dadd
    printfa.o(i._fp_digits) refers to dfixul.o(.text) for __aeabi_d2ulz
    printfa.o(i._fp_digits) refers to uldiv.o(.text) for __aeabi_uldivmod
    printfa.o(i._printf_core) refers (Special) to iusefp.o(.text) for __I$use$fp
    printfa.o(i._printf_core) refers to printfa.o(i._printf_pre_padding) for _printf_pre_padding
    printfa.o(i._printf_core) refers to uldiv.o(.text) for __aeabi_uldivmod
    printfa.o(i._printf_core) refers to printfa.o(i._printf_post_padding) for _printf_post_padding
    printfa.o(i._printf_core) refers to printfa.o(i._fp_digits) for _fp_digits
    printfa.o(i._printf_core) refers to uidiv.o(.text) for __aeabi_uidivmod
    printfa.o(i._printf_post_padding) refers (Special) to iusefp.o(.text) for __I$use$fp
    printfa.o(i._printf_pre_padding) refers (Special) to iusefp.o(.text) for __I$use$fp
    printfa.o(i._snputc) refers (Special) to iusefp.o(.text) for __I$use$fp
    printfa.o(i._sputc) refers (Special) to iusefp.o(.text) for __I$use$fp
    atoi.o(.text) refers to errno.o(i.__aeabi_errno_addr) for __aeabi_errno_addr
    atoi.o(.text) refers to strtol.o(.text) for strtol
    fmul.o(.text) refers (Special) to iusefp.o(.text) for __I$use$fp
    dadd.o(.text) refers (Special) to iusefp.o(.text) for __I$use$fp
    dadd.o(.text) refers to llshl.o(.text) for __aeabi_llsl
    dadd.o(.text) refers to llsshr.o(.text) for __aeabi_lasr
    dadd.o(.text) refers to depilogue.o(.text) for _double_epilogue
    dmul.o(.text) refers (Special) to iusefp.o(.text) for __I$use$fp
    dmul.o(.text) refers to depilogue.o(.text) for _double_epilogue
    ddiv.o(.text) refers (Special) to iusefp.o(.text) for __I$use$fp
    ddiv.o(.text) refers to depilogue.o(.text) for _double_round
    dflti.o(.text) refers (Special) to iusefp.o(.text) for __I$use$fp
    dflti.o(.text) refers to depilogue.o(.text) for _double_epilogue
    dfltui.o(.text) refers (Special) to iusefp.o(.text) for __I$use$fp
    dfltui.o(.text) refers to depilogue.o(.text) for _double_epilogue
    ffixi.o(.text) refers (Special) to iusefp.o(.text) for __I$use$fp
    dfixi.o(.text) refers (Special) to iusefp.o(.text) for __I$use$fp
    dfixi.o(.text) refers to llushr.o(.text) for __aeabi_llsr
    dfixui.o(.text) refers (Special) to iusefp.o(.text) for __I$use$fp
    dfixui.o(.text) refers to llushr.o(.text) for __aeabi_llsr
    cdcmple.o(.text) refers (Special) to iusefp.o(.text) for __I$use$fp
    d2f.o(.text) refers (Special) to iusefp.o(.text) for __I$use$fp
    d2f.o(.text) refers to fepilogue.o(.text) for _float_round
    entry2.o(.ARM.Collect$$$$00000001) refers to entry2.o(.ARM.Collect$$$$00002712) for __lit__00000000
    entry2.o(.ARM.Collect$$$$00002712) refers to startup_stm32f10x_hd.o(STACK) for __initial_sp
    entry2.o(__vectab_stack_and_reset_area) refers to startup_stm32f10x_hd.o(STACK) for __initial_sp
    entry2.o(__vectab_stack_and_reset_area) refers to entry.o(.ARM.Collect$$$$00000000) for __main
    entry5.o(.ARM.Collect$$$$00000004) refers to init.o(.text) for __scatterload
    entry9a.o(.ARM.Collect$$$$0000000B) refers to main.o(.text) for main
    entry9b.o(.ARM.Collect$$$$0000000C) refers to main.o(.text) for main
    fputc.o(i.fputc) refers (Special) to iusesemip.o(.text) for __I$use$semihosting$fputc
    fputc.o(i.fputc) refers (Special) to semi.o(.text) for __semihosting_library_function
    localtime_i.o(.text) refers to localtime_i.o(.constdata) for .constdata
    errno.o(i.__aeabi_errno_addr) refers to errno.o(.data) for .data
    errno.o(i.__read_errno) refers to errno.o(.data) for .data
    errno.o(i.__set_errno) refers to errno.o(.data) for .data
    strtol.o(.text) refers to ctype_o.o(.text) for __rt_ctype_table
    strtol.o(.text) refers to _strtoul.o(.text) for _strtoul
    strtol.o(.text) refers to errno.o(i.__aeabi_errno_addr) for __aeabi_errno_addr
    depilogue.o(.text) refers to llshl.o(.text) for __aeabi_llsl
    depilogue.o(.text) refers to llushr.o(.text) for __aeabi_llsr
    dfixul.o(.text) refers to llushr.o(.text) for __aeabi_llsr
    dfixul.o(.text) refers to llshl.o(.text) for __aeabi_llsl
    init.o(.text) refers to entry5.o(.ARM.Collect$$$$00000004) for __main_after_scatterload
    ctype_o.o(.text) refers to ctype_o.o(.constdata) for .constdata
    ctype_o.o(.constdata) refers to ctype_o.o(.constdata) for __ctype_table
    isalnum_o.o(.text) refers to ctype_o.o(.text) for __rt_ctype_table
    isalpha_o.o(.text) refers to ctype_o.o(.text) for __rt_ctype_table
    isblank_o.o(.text) refers to ctype_o.o(.constdata) for __ctype_table
    iscntrl_o.o(.text) refers to ctype_o.o(.text) for __rt_ctype_table
    isdigit_o.o(.text) refers to ctype_o.o(.text) for __rt_ctype_table
    isgraph_o.o(.text) refers to ctype_o.o(.text) for __rt_ctype_table
    islower_o.o(.text) refers to ctype_o.o(.text) for __rt_ctype_table
    isprint_o.o(.text) refers to ctype_o.o(.text) for __rt_ctype_table
    ispunct_o.o(.text) refers to ctype_o.o(.text) for __rt_ctype_table
    isspace_o.o(.text) refers to ctype_o.o(.text) for __rt_ctype_table
    isupper_o.o(.text) refers to ctype_o.o(.text) for __rt_ctype_table
    isxdigit_o.o(.text) refers to ctype_o.o(.text) for __rt_ctype_table
    _strtoul.o(.text) refers to _chval.o(.text) for _chval
    _strtoul.o(.text) refers to errno.o(i.__aeabi_errno_addr) for __aeabi_errno_addr


==============================================================================

Removing Unused input sections from the image.

    Removing startup_stm32f10x_hd.o(HEAP), (512 bytes).
    Removing application.o(.data), (4 bytes).
    Removing application.o(.data), (1 bytes).
    Removing application.o(.data), (4 bytes).
    Removing test_positioning.o(.data), (1 bytes).
    Removing test_positioning.o(.data), (8 bytes).
    Removing test_positioning.o(.data), (8 bytes).
    Removing test_positioning.o(.data), (8 bytes).
    Removing runinit_task.o(.data), (1 bytes).
    Removing u2rece_task.o(.data), (1 bytes).
    Removing u2rece_task.o(.data), (1 bytes).
    Removing u2rece_task.o(.data), (2 bytes).
    Removing u2rece_task.o(.data), (2 bytes).
    Removing u2rece_task.o(.data), (1 bytes).
    Removing u2rece_task.o(.data), (2 bytes).
    Removing u2rece_task.o(.data), (2 bytes).
    Removing u2rece_task.o(.data), (1 bytes).
    Removing cocoguojia_oled.o(.constdata), (552 bytes).
    Removing cocoguojia_sdcard.o(.data), (1 bytes).
    Removing core_cm3.o(.emb_text), (32 bytes).
    Removing stm32f10x_crc.o(.text), (64 bytes).
    Removing stm32f10x_flash.o(.text), (1188 bytes).
    Removing stm32f10x_fsmc.o(.text), (1206 bytes).

23 unused section(s) (total 3602 bytes) removed from the image.

==============================================================================

Image Symbol Table

    Local Symbols

    Symbol Name                              Value     Ov Type        Size  Object(Section)

    ../clib/../cmprslib/zerorunl2.c          0x00000000   Number         0  __dczerorl2.o ABSOLUTE
    ../clib/microlib/ctype/ctype.c           0x00000000   Number         0  ctype_o.o ABSOLUTE
    ../clib/microlib/ctype/ctype.c           0x00000000   Number         0  isxdigit_o.o ABSOLUTE
    ../clib/microlib/ctype/ctype.c           0x00000000   Number         0  isupper_o.o ABSOLUTE
    ../clib/microlib/ctype/ctype.c           0x00000000   Number         0  isspace_o.o ABSOLUTE
    ../clib/microlib/ctype/ctype.c           0x00000000   Number         0  ispunct_o.o ABSOLUTE
    ../clib/microlib/ctype/ctype.c           0x00000000   Number         0  isprint_o.o ABSOLUTE
    ../clib/microlib/ctype/ctype.c           0x00000000   Number         0  isblank_o.o ABSOLUTE
    ../clib/microlib/ctype/ctype.c           0x00000000   Number         0  islower_o.o ABSOLUTE
    ../clib/microlib/ctype/ctype.c           0x00000000   Number         0  isgraph_o.o ABSOLUTE
    ../clib/microlib/ctype/ctype.c           0x00000000   Number         0  iscntrl_o.o ABSOLUTE
    ../clib/microlib/ctype/ctype.c           0x00000000   Number         0  isdigit_o.o ABSOLUTE
    ../clib/microlib/ctype/ctype.c           0x00000000   Number         0  isalnum_o.o ABSOLUTE
    ../clib/microlib/ctype/ctype.c           0x00000000   Number         0  isalpha_o.o ABSOLUTE
    ../clib/microlib/division.c              0x00000000   Number         0  uldiv.o ABSOLUTE
    ../clib/microlib/division.c              0x00000000   Number         0  uidiv.o ABSOLUTE
    ../clib/microlib/errno.c                 0x00000000   Number         0  errno.o ABSOLUTE
    ../clib/microlib/init/entry.s            0x00000000   Number         0  entry7a.o ABSOLUTE
    ../clib/microlib/init/entry.s            0x00000000   Number         0  entry8b.o ABSOLUTE
    ../clib/microlib/init/entry.s            0x00000000   Number         0  entry9a.o ABSOLUTE
    ../clib/microlib/init/entry.s            0x00000000   Number         0  entry9b.o ABSOLUTE
    ../clib/microlib/init/entry.s            0x00000000   Number         0  entry10a.o ABSOLUTE
    ../clib/microlib/init/entry.s            0x00000000   Number         0  entry10b.o ABSOLUTE
    ../clib/microlib/init/entry.s            0x00000000   Number         0  entry11a.o ABSOLUTE
    ../clib/microlib/init/entry.s            0x00000000   Number         0  entry.o ABSOLUTE
    ../clib/microlib/init/entry.s            0x00000000   Number         0  entry11b.o ABSOLUTE
    ../clib/microlib/init/entry.s            0x00000000   Number         0  entry5.o ABSOLUTE
    ../clib/microlib/init/entry.s            0x00000000   Number         0  entry7b.o ABSOLUTE
    ../clib/microlib/init/entry.s            0x00000000   Number         0  entry2.o ABSOLUTE
    ../clib/microlib/init/entry.s            0x00000000   Number         0  entry8a.o ABSOLUTE
    ../clib/microlib/longlong.c              0x00000000   Number         0  llshl.o ABSOLUTE
    ../clib/microlib/longlong.c              0x00000000   Number         0  llushr.o ABSOLUTE
    ../clib/microlib/longlong.c              0x00000000   Number         0  llsshr.o ABSOLUTE
    ../clib/microlib/printf/printf.c         0x00000000   Number         0  printf3.o ABSOLUTE
    ../clib/microlib/printf/printf.c         0x00000000   Number         0  printfb.o ABSOLUTE
    ../clib/microlib/printf/printf.c         0x00000000   Number         0  printf0.o ABSOLUTE
    ../clib/microlib/printf/printf.c         0x00000000   Number         0  printf1.o ABSOLUTE
    ../clib/microlib/printf/printf.c         0x00000000   Number         0  printf2.o ABSOLUTE
    ../clib/microlib/printf/printf.c         0x00000000   Number         0  printf4.o ABSOLUTE
    ../clib/microlib/printf/printf.c         0x00000000   Number         0  printf5.o ABSOLUTE
    ../clib/microlib/printf/printf.c         0x00000000   Number         0  printf6.o ABSOLUTE
    ../clib/microlib/printf/printf.c         0x00000000   Number         0  printf7.o ABSOLUTE
    ../clib/microlib/printf/printf.c         0x00000000   Number         0  printf8.o ABSOLUTE
    ../clib/microlib/printf/printf.c         0x00000000   Number         0  printfa.o ABSOLUTE
    ../clib/microlib/printf/stubs.s          0x00000000   Number         0  stubs.o ABSOLUTE
    ../clib/microlib/stdio/fputc.c           0x00000000   Number         0  fputc.o ABSOLUTE
    ../clib/microlib/stdio/semi.s            0x00000000   Number         0  semi.o ABSOLUTE
    ../clib/microlib/stdio/streams.c         0x00000000   Number         0  stdout.o ABSOLUTE
    ../clib/microlib/string/memcpy.c         0x00000000   Number         0  memcpyb.o ABSOLUTE
    ../clib/microlib/string/memcpy.c         0x00000000   Number         0  memcpya.o ABSOLUTE
    ../clib/microlib/string/memset.c         0x00000000   Number         0  memseta.o ABSOLUTE
    ../clib/microlib/string/strcmp.c         0x00000000   Number         0  strcmp.o ABSOLUTE
    ../clib/microlib/string/strcpy.c         0x00000000   Number         0  strcpy.o ABSOLUTE
    ../clib/microlib/string/strlen.c         0x00000000   Number         0  strlen.o ABSOLUTE
    ../clib/microlib/string/strncpy.c        0x00000000   Number         0  strncpy.o ABSOLUTE
    ../clib/microlib/stubs.s                 0x00000000   Number         0  iusefp.o ABSOLUTE
    ../clib/microlib/stubs.s                 0x00000000   Number         0  iusesemip.o ABSOLUTE
    ../clib/microlib/time/localtime.c        0x00000000   Number         0  localtime_w.o ABSOLUTE
    ../clib/microlib/time/localtime.c        0x00000000   Number         0  localtime_r.o ABSOLUTE
    ../clib/microlib/time/localtime.c        0x00000000   Number         0  localtime_i.o ABSOLUTE
    ../clib/microlib/time/mktime.c           0x00000000   Number         0  mktime.o ABSOLUTE
    ../clib/scanf.c                          0x00000000   Number         0  strtol.o ABSOLUTE
    ../clib/scanf.c                          0x00000000   Number         0  atoi.o ABSOLUTE
    ../clib/scanf.c                          0x00000000   Number         0  _chval.o ABSOLUTE
    ../clib/scanf.c                          0x00000000   Number         0  _strtoul.o ABSOLUTE
    ../fplib/microlib/d2f.c                  0x00000000   Number         0  d2f.o ABSOLUTE
    ../fplib/microlib/fpadd.c                0x00000000   Number         0  dadd.o ABSOLUTE
    ../fplib/microlib/fpdiv.c                0x00000000   Number         0  ddiv.o ABSOLUTE
    ../fplib/microlib/fpepilogue.c           0x00000000   Number         0  fepilogue.o ABSOLUTE
    ../fplib/microlib/fpepilogue.c           0x00000000   Number         0  depilogue.o ABSOLUTE
    ../fplib/microlib/fpfix.c                0x00000000   Number         0  dfixui.o ABSOLUTE
    ../fplib/microlib/fpfix.c                0x00000000   Number         0  dfixi.o ABSOLUTE
    ../fplib/microlib/fpfix.c                0x00000000   Number         0  ffixi.o ABSOLUTE
    ../fplib/microlib/fpfix.c                0x00000000   Number         0  dfixul.o ABSOLUTE
    ../fplib/microlib/fpflt.c                0x00000000   Number         0  dfltui.o ABSOLUTE
    ../fplib/microlib/fpflt.c                0x00000000   Number         0  dflti.o ABSOLUTE
    ../fplib/microlib/fpmul.c                0x00000000   Number         0  dmul.o ABSOLUTE
    ../fplib/microlib/fpmul.c                0x00000000   Number         0  fmul.o ABSOLUTE
    ..\..\CMSIS_FREE_RTOS\cmsis_os.c         0x00000000   Number         0  cmsis_os.o ABSOLUTE
    ..\..\FATFS\diskio.c                     0x00000000   Number         0  diskio.o ABSOLUTE
    ..\..\FATFS\ff.c                         0x00000000   Number         0  ff.o ABSOLUTE
    ..\..\FATFS\option\cc936.c               0x00000000   Number         0  cc936.o ABSOLUTE
    ..\..\FreeRTOS\port\MemMang\heap_4.c     0x00000000   Number         0  heap_4.o ABSOLUTE
    ..\..\FreeRTOS\port\RVDS\ARM_CM3\port.c  0x00000000   Number         0  port.o ABSOLUTE
    ..\..\FreeRTOS\src\croutine.c            0x00000000   Number         0  croutine.o ABSOLUTE
    ..\..\FreeRTOS\src\event_groups.c        0x00000000   Number         0  event_groups.o ABSOLUTE
    ..\..\FreeRTOS\src\list.c                0x00000000   Number         0  list.o ABSOLUTE
    ..\..\FreeRTOS\src\queue.c               0x00000000   Number         0  queue.o ABSOLUTE
    ..\..\FreeRTOS\src\tasks.c               0x00000000   Number         0  tasks.o ABSOLUTE
    ..\..\FreeRTOS\src\timers.c              0x00000000   Number         0  timers.o ABSOLUTE
    ..\..\Libraries\CMSIS\core_cm3.c         0x00000000   Number         0  core_cm3.o ABSOLUTE
    ..\..\Libraries\CMSIS\startup\startup_stm32f10x_hd.s 0x00000000   Number         0  startup_stm32f10x_hd.o ABSOLUTE
    ..\..\Libraries\CMSIS\system_stm32f10x.c 0x00000000   Number         0  system_stm32f10x.o ABSOLUTE
    ..\..\Libraries\FWlib\src\misc.c         0x00000000   Number         0  misc.o ABSOLUTE
    ..\..\Libraries\FWlib\src\stm32f10x_crc.c 0x00000000   Number         0  stm32f10x_crc.o ABSOLUTE
    ..\..\Libraries\FWlib\src\stm32f10x_dma.c 0x00000000   Number         0  stm32f10x_dma.o ABSOLUTE
    ..\..\Libraries\FWlib\src\stm32f10x_exti.c 0x00000000   Number         0  stm32f10x_exti.o ABSOLUTE
    ..\..\Libraries\FWlib\src\stm32f10x_flash.c 0x00000000   Number         0  stm32f10x_flash.o ABSOLUTE
    ..\..\Libraries\FWlib\src\stm32f10x_fsmc.c 0x00000000   Number         0  stm32f10x_fsmc.o ABSOLUTE
    ..\..\Libraries\FWlib\src\stm32f10x_gpio.c 0x00000000   Number         0  stm32f10x_gpio.o ABSOLUTE
    ..\..\Libraries\FWlib\src\stm32f10x_rcc.c 0x00000000   Number         0  stm32f10x_rcc.o ABSOLUTE
    ..\..\Libraries\FWlib\src\stm32f10x_sdio.c 0x00000000   Number         0  stm32f10x_sdio.o ABSOLUTE
    ..\..\Libraries\FWlib\src\stm32f10x_tim.c 0x00000000   Number         0  stm32f10x_tim.o ABSOLUTE
    ..\..\Libraries\FWlib\src\stm32f10x_usart.c 0x00000000   Number         0  stm32f10x_usart.o ABSOLUTE
    ..\..\app_psdk_test\test_app_func.c      0x00000000   Number         0  test_app_func.o ABSOLUTE
    ..\..\app_psdk_test\test_msg_push.c      0x00000000   Number         0  test_msg_push.o ABSOLUTE
    ..\..\app_psdk_test\test_osdk_func.c     0x00000000   Number         0  test_osdk_func.o ABSOLUTE
    ..\..\app_psdk_test\test_payload_cam_emu.c 0x00000000   Number         0  test_payload_cam_emu.o ABSOLUTE
    ..\..\app_psdk_test\test_payload_gimbal_emu.c 0x00000000   Number         0  test_payload_gimbal_emu.o ABSOLUTE
    ..\..\app_psdk_test\test_positioning.c   0x00000000   Number         0  test_positioning.o ABSOLUTE
    ..\..\app_user\application.c             0x00000000   Number         0  application.o ABSOLUTE
    ..\..\app_user\main.c                    0x00000000   Number         0  main.o ABSOLUTE
    ..\..\app_user\stm32f10x_it.c            0x00000000   Number         0  stm32f10x_it.o ABSOLUTE
    ..\..\drv_bsp\hotshoe.c                  0x00000000   Number         0  hotshoe.o ABSOLUTE
    ..\..\drv_bsp\pps.c                      0x00000000   Number         0  pps.o ABSOLUTE
    ..\..\drv_bsp\sys.c                      0x00000000   Number         0  sys.o ABSOLUTE
    ..\..\mid_psdk_arch\psdk_arch_sys.c      0x00000000   Number         0  psdk_arch_sys.o ABSOLUTE
    ..\..\mid_psdk_core\src\psdk_aes.c       0x00000000   Number         0  psdk_aes.o ABSOLUTE
    ..\..\mid_psdk_core\src\psdk_crc.c       0x00000000   Number         0  psdk_crc.o ABSOLUTE
    ..\..\mid_psdk_core\src\psdk_debug.c     0x00000000   Number         0  psdk_debug.o ABSOLUTE
    ..\..\mid_psdk_core\src\psdk_md5.c       0x00000000   Number         0  psdk_md5.o ABSOLUTE
    ..\..\mid_psdk_core\src\psdk_proto.c     0x00000000   Number         0  psdk_proto.o ABSOLUTE
    ..\..\mid_psdk_core\src\psdk_proto_parse.c 0x00000000   Number         0  psdk_proto_parse.o ABSOLUTE
    ..\..\mid_psdk_upper\src\psdk_app_func.c 0x00000000   Number         0  psdk_app_func.o ABSOLUTE
    ..\..\mid_psdk_upper\src\psdk_msg_subcribe.c 0x00000000   Number         0  psdk_msg_subcribe.o ABSOLUTE
    ..\..\mid_psdk_upper\src\psdk_osdk_func.c 0x00000000   Number         0  psdk_osdk_func.o ABSOLUTE
    ..\..\mid_psdk_upper\src\psdk_payload_camera.c 0x00000000   Number         0  psdk_payload_camera.o ABSOLUTE
    ..\..\mid_psdk_upper\src\psdk_payload_gimbal.c 0x00000000   Number         0  psdk_payload_gimbal.o ABSOLUTE
    ..\..\mid_psdk_upper\src\psdk_positioning.c 0x00000000   Number         0  psdk_positioning.o ABSOLUTE
    ..\..\mid_psdk_upper\src\psdk_upper.c    0x00000000   Number         0  psdk_upper.o ABSOLUTE
    ..\..\my_bsp\bsp.c                       0x00000000   Number         0  bsp.o ABSOLUTE
    ..\..\my_cocolib\cocoguojia_24c02.c      0x00000000   Number         0  cocoguojia_24c02.o ABSOLUTE
    ..\..\my_cocolib\cocoguojia_ds18b20.c    0x00000000   Number         0  cocoguojia_ds18b20.o ABSOLUTE
    ..\..\my_cocolib\cocoguojia_init.c       0x00000000   Number         0  cocoguojia_init.o ABSOLUTE
    ..\..\my_cocolib\cocoguojia_oled.c       0x00000000   Number         0  cocoguojia_oled.o ABSOLUTE
    ..\..\my_cocolib\cocoguojia_rgbled.c     0x00000000   Number         0  cocoguojia_rgbled.o ABSOLUTE
    ..\..\my_cocolib\cocoguojia_sdcard.c     0x00000000   Number         0  cocoguojia_sdcard.o ABSOLUTE
    ..\..\my_cocolib\cocoguojia_sdio.c       0x00000000   Number         0  cocoguojia_sdio.o ABSOLUTE
    ..\..\my_cocolib\cocoguojia_tim1pwm.c    0x00000000   Number         0  cocoguojia_tim1pwm.o ABSOLUTE
    ..\..\my_cocolib\cocoguojia_usart.c      0x00000000   Number         0  cocoguojia_usart.o ABSOLUTE
    ..\..\my_cocolib\cocoguojia_usart_ringbuffer.c 0x00000000   Number         0  cocoguojia_usart_ringbuffer.o ABSOLUTE
    ..\..\my_task\cam_task.c                 0x00000000   Number         0  cam_task.o ABSOLUTE
    ..\..\my_task\fan_task.c                 0x00000000   Number         0  fan_task.o ABSOLUTE
    ..\..\my_task\key_task.c                 0x00000000   Number         0  key_task.o ABSOLUTE
    ..\..\my_task\oled_task.c                0x00000000   Number         0  oled_task.o ABSOLUTE
    ..\..\my_task\rgb_task.c                 0x00000000   Number         0  rgb_task.o ABSOLUTE
    ..\..\my_task\runinit_task.c             0x00000000   Number         0  runinit_task.o ABSOLUTE
    ..\..\my_task\trigger_task.c             0x00000000   Number         0  trigger_task.o ABSOLUTE
    ..\..\my_task\u2rece_task.c              0x00000000   Number         0  u2rece_task.o ABSOLUTE
    ..\..\my_task\u2send_task.c              0x00000000   Number         0  u2send_task.o ABSOLUTE
    ..\\..\\FreeRTOS\\port\\RVDS\\ARM_CM3\\port.c 0x00000000   Number         0  port.o ABSOLUTE
    ..\\..\\Libraries\\CMSIS\\core_cm3.c     0x00000000   Number         0  core_cm3.o ABSOLUTE
    cdcmple.s                                0x00000000   Number         0  cdcmple.o ABSOLUTE
    cdrcmple.s                               0x00000000   Number         0  cdrcmple.o ABSOLUTE
    dc.s                                     0x00000000   Number         0  dc.o ABSOLUTE
    handlers.s                               0x00000000   Number         0  handlers.o ABSOLUTE
    init.s                                   0x00000000   Number         0  init.o ABSOLUTE
    RESET                                    0x08035000   Section      304  startup_stm32f10x_hd.o(RESET)
    .ARM.Collect$$$$00000000                 0x08035130   Section        0  entry.o(.ARM.Collect$$$$00000000)
    .ARM.Collect$$$$00000001                 0x08035130   Section        4  entry2.o(.ARM.Collect$$$$00000001)
    .ARM.Collect$$$$00000004                 0x08035134   Section        4  entry5.o(.ARM.Collect$$$$00000004)
    .ARM.Collect$$$$00000008                 0x08035138   Section        0  entry7b.o(.ARM.Collect$$$$00000008)
    .ARM.Collect$$$$0000000A                 0x08035138   Section        0  entry8b.o(.ARM.Collect$$$$0000000A)
    .ARM.Collect$$$$0000000B                 0x08035138   Section        8  entry9a.o(.ARM.Collect$$$$0000000B)
    .ARM.Collect$$$$0000000D                 0x08035140   Section        0  entry10a.o(.ARM.Collect$$$$0000000D)
    .ARM.Collect$$$$0000000F                 0x08035140   Section        0  entry11a.o(.ARM.Collect$$$$0000000F)
    .ARM.Collect$$$$00002712                 0x08035140   Section        4  entry2.o(.ARM.Collect$$$$00002712)
    __lit__00000000                          0x08035140   Data           4  entry2.o(.ARM.Collect$$$$00002712)
    .emb_text                                0x08035144   Section      150  port.o(.emb_text)
    .text                                    0x080351dc   Section       36  startup_stm32f10x_hd.o(.text)
    .text                                    0x08035200   Section        0  application.o(.text)
    FillInUserInfo                           0x08035201   Thumb Code   142  application.o(.text)
    .text                                    0x080359ec   Section        0  main.o(.text)
    .text                                    0x08035ae4   Section        0  stm32f10x_it.o(.text)
    .text                                    0x08035b04   Section        0  test_app_func.o(.text)
    .text                                    0x08035fd0   Section        0  test_msg_push.o(.text)
    bandWidthMsgCallback                     0x08035fd1   Thumb Code     2  test_msg_push.o(.text)
    uavAttitudeMsgCallback                   0x08035fd3   Thumb Code     2  test_msg_push.o(.text)
    batteryInfoMsgCallback                   0x08035fd5   Thumb Code    10  test_msg_push.o(.text)
    gpsInfoMsgCallback                       0x08035fdf   Thumb Code     2  test_msg_push.o(.text)
    uavStateMsgCallback                      0x08035fe1   Thumb Code     2  test_msg_push.o(.text)
    appDateTimeMsgCallback                   0x08035fe3   Thumb Code     2  test_msg_push.o(.text)
    baroHeightDataMsgCallback                0x08035fe5   Thumb Code     2  test_msg_push.o(.text)
    gpsRawDataMsgCallback                    0x08035fe7   Thumb Code     8  test_msg_push.o(.text)
    rtkRawDataMsgCallback                    0x08035fef   Thumb Code     2  test_msg_push.o(.text)
    utcTimestampMsgCallback                  0x08035ff1   Thumb Code    80  test_msg_push.o(.text)
    otherPayloadTypeMsgCallback              0x08036041   Thumb Code     2  test_msg_push.o(.text)
    otherPayloadFocalLengthMsgCallback       0x08036043   Thumb Code     2  test_msg_push.o(.text)
    .text                                    0x08036048   Section        0  test_payload_cam_emu.o(.text)
    .text                                    0x0803682c   Section        0  test_payload_gimbal_emu.o(.text)
    .text                                    0x08036b80   Section        0  test_osdk_func.o(.text)
    Test_ReceiveFromOnboardSDKFunc           0x08036b81   Thumb Code    42  test_osdk_func.o(.text)
    .text                                    0x08036bdc   Section        0  test_positioning.o(.text)
    Test_TransferTimeFromLocalToUtc          0x08036bdd   Thumb Code   192  test_positioning.o(.text)
    .text                                    0x08036ed8   Section        0  sys.o(.text)
    .text                                    0x08036edc   Section        0  pps.o(.text)
    .text                                    0x08036fcc   Section        0  hotshoe.o(.text)
    .text                                    0x08037084   Section        0  bsp.o(.text)
    .text                                    0x08037188   Section        0  cam_task.o(.text)
    .text                                    0x08037714   Section        0  key_task.o(.text)
    .text                                    0x08037844   Section        0  oled_task.o(.text)
    .text                                    0x080379c0   Section        0  rgb_task.o(.text)
    .text                                    0x08037b90   Section        0  runinit_task.o(.text)
    ShowSystemInit                           0x08037b91   Thumb Code    44  runinit_task.o(.text)
    ReadEepromAndShowResultAndSetDoWhit      0x08037bbd   Thumb Code   808  runinit_task.o(.text)
    PowerUpAndShowLogo                       0x08037ee5   Thumb Code   134  runinit_task.o(.text)
    .text                                    0x0803805c   Section        0  trigger_task.o(.text)
    .text                                    0x08038384   Section        0  u2rece_task.o(.text)
    .text                                    0x080384e8   Section        0  u2send_task.o(.text)
    comForKey                                0x080384e9   Thumb Code    40  u2send_task.o(.text)
    askFor5Cam                               0x08038511   Thumb Code   162  u2send_task.o(.text)
    comFor5CamPhoto                          0x080385b3   Thumb Code    28  u2send_task.o(.text)
    comFor5CamOff                            0x080385cf   Thumb Code    40  u2send_task.o(.text)
    comFor5CamOn                             0x080385f7   Thumb Code    40  u2send_task.o(.text)
    .text                                    0x08038710   Section        0  fan_task.o(.text)
    .text                                    0x080387d0   Section        0  cocoguojia_24c02.o(.text)
    i2c_Delay                                0x080387d1   Thumb Code    12  cocoguojia_24c02.o(.text)
    i2c_CfgGpio                              0x0803891f   Thumb Code    44  cocoguojia_24c02.o(.text)
    .text                                    0x08038ae4   Section        0  cocoguojia_ds18b20.o(.text)
    delay_us750                              0x08038ae5   Thumb Code   142  cocoguojia_ds18b20.o(.text)
    delay_us1                                0x08038b73   Thumb Code   128  cocoguojia_ds18b20.o(.text)
    DS18B20_Check                            0x08038bf3   Thumb Code    86  cocoguojia_ds18b20.o(.text)
    delay_us                                 0x08038c49   Thumb Code   140  cocoguojia_ds18b20.o(.text)
    DS18B20_Rst                              0x08038cd5   Thumb Code    42  cocoguojia_ds18b20.o(.text)
    DS18B20_Read_Bit                         0x08038d3b   Thumb Code    82  cocoguojia_ds18b20.o(.text)
    DS18B20_Read_Byte                        0x08038d8d   Thumb Code    30  cocoguojia_ds18b20.o(.text)
    DS18B20_Write_Byte                       0x08038dab   Thumb Code   100  cocoguojia_ds18b20.o(.text)
    DS18B20_Start                            0x08038e0f   Thumb Code    24  cocoguojia_ds18b20.o(.text)
    .text                                    0x08038ea4   Section        0  cocoguojia_init.o(.text)
    .text                                    0x08038eec   Section        0  cocoguojia_oled.o(.text)
    OLED_ShowCharFanBai                      0x0803905f   Thumb Code   100  cocoguojia_oled.o(.text)
    delay_oled                               0x080392f9   Thumb Code    10  cocoguojia_oled.o(.text)
    .text                                    0x0803a10c   Section        0  cocoguojia_rgbled.o(.text)
    .text                                    0x0803a154   Section        0  cocoguojia_tim1pwm.o(.text)
    .text                                    0x0803a21c   Section        0  cocoguojia_usart.o(.text)
    .text                                    0x0803a774   Section        0  cocoguojia_usart_ringbuffer.o(.text)
    RingBuf_CutBufSizeToPowOfTwo             0x0803a775   Thumb Code    26  cocoguojia_usart_ringbuffer.o(.text)
    .text                                    0x0803a84c   Section        0  cocoguojia_sdcard.o(.text)
    .text                                    0x0803ab18   Section        0  cocoguojia_sdio.o(.text)
    NVIC_Configuration                       0x0803ab81   Thumb Code    34  cocoguojia_sdio.o(.text)
    SD_DMAEndOfTransferStatus                0x0803aba3   Thumb Code     6  cocoguojia_sdio.o(.text)
    SD_DMA_RxConfig                          0x0803aba9   Thumb Code    80  cocoguojia_sdio.o(.text)
    SD_DMA_TxConfig                          0x0803abf9   Thumb Code    80  cocoguojia_sdio.o(.text)
    GPIO_Configuration                       0x0803ac49   Thumb Code    70  cocoguojia_sdio.o(.text)
    CmdResp1Error                            0x0803ac8f   Thumb Code    26  cocoguojia_sdio.o(.text)
    FindSCR                                  0x0803aca9   Thumb Code   372  cocoguojia_sdio.o(.text)
    SDEnWideBus                              0x0803ae1d   Thumb Code   212  cocoguojia_sdio.o(.text)
    CmdResp2Error                            0x0803b229   Thumb Code    62  cocoguojia_sdio.o(.text)
    CmdResp6Error                            0x0803b267   Thumb Code   122  cocoguojia_sdio.o(.text)
    CmdResp3Error                            0x0803b3fd   Thumb Code    46  cocoguojia_sdio.o(.text)
    CmdResp7Error                            0x0803b42b   Thumb Code    62  cocoguojia_sdio.o(.text)
    CmdError                                 0x0803b469   Thumb Code    42  cocoguojia_sdio.o(.text)
    IsCardProgramming                        0x0803bc31   Thumb Code   344  cocoguojia_sdio.o(.text)
    .text                                    0x0803bedc   Section        0  psdk_upper.o(.text)
    Str_PutStrToBuff                         0x0803bedd   Thumb Code    40  psdk_upper.o(.text)
    PsdkProtoUpper_CalTransferKey            0x0803bf05   Thumb Code   210  psdk_upper.o(.text)
    PsdkPayloadStateCmd_IdentityVerify       0x0803bfd7   Thumb Code   116  psdk_upper.o(.text)
    PsdkPayloadStateCmd_GetVersion           0x0803c04b   Thumb Code    40  psdk_upper.o(.text)
    PsdkPayloadStateCmd_LinkHandShake        0x0803c073   Thumb Code    48  psdk_upper.o(.text)
    PsdkPayloadStateCmd_GetPayloadProductInfo 0x0803c0a3   Thumb Code    74  psdk_upper.o(.text)
    PsdkPayloadStateCmd_GetSkyportVersionInfo 0x0803c0ed   Thumb Code    44  psdk_upper.o(.text)
    PsdkPayloadStateCmd_GetPayloadProductAlias 0x0803c119   Thumb Code    44  psdk_upper.o(.text)
    .text                                    0x0803c1d4   Section        0  psdk_app_func.o(.text)
    AppFuncCmd_TT_AppToLoad                  0x0803c1d5   Thumb Code    20  psdk_app_func.o(.text)
    AppFuncCmd_GetWidgetListLength           0x0803c1e9   Thumb Code    40  psdk_app_func.o(.text)
    AppFuncCmd_GetWidgetListValue            0x0803c211   Thumb Code   230  psdk_app_func.o(.text)
    AppFuncCmd_GetWidgetGroupCount           0x0803c2f7   Thumb Code    58  psdk_app_func.o(.text)
    AppFuncCmd_GetWidgetGroupValue           0x0803c331   Thumb Code   280  psdk_app_func.o(.text)
    AppFuncCmd_SetWidgetValue                0x0803c449   Thumb Code    78  psdk_app_func.o(.text)
    AppFuncCmd_GetTextInputBoxParam          0x0803c497   Thumb Code    78  psdk_app_func.o(.text)
    .text                                    0x0803c640   Section        0  psdk_msg_subcribe.o(.text)
    MsgPushCmd_PushBandWidth                 0x0803c641   Thumb Code    18  psdk_msg_subcribe.o(.text)
    MsgPushCmd_PushAttitude                  0x0803c653   Thumb Code    18  psdk_msg_subcribe.o(.text)
    MsgPushCmd_PushBatteryInfo               0x0803c665   Thumb Code    36  psdk_msg_subcribe.o(.text)
    MsgPushCmd_PushGpsInfo                   0x0803c689   Thumb Code    18  psdk_msg_subcribe.o(.text)
    MsgPushCmd_PushUavState                  0x0803c69b   Thumb Code    18  psdk_msg_subcribe.o(.text)
    MsgPushCmd_PushAppDateTime               0x0803c6ad   Thumb Code    18  psdk_msg_subcribe.o(.text)
    MsgPushCmd_PushBaroHeight                0x0803c6bf   Thumb Code    18  psdk_msg_subcribe.o(.text)
    MsgPushCmd_GpsRawData                    0x0803c6d1   Thumb Code    18  psdk_msg_subcribe.o(.text)
    MsgPushCmd_RtkRawData                    0x0803c6e3   Thumb Code    18  psdk_msg_subcribe.o(.text)
    MsgPushCmd_UtcTimestamp                  0x0803c6f5   Thumb Code    18  psdk_msg_subcribe.o(.text)
    MsgPushCmd_OtherPayloadType              0x0803c707   Thumb Code    18  psdk_msg_subcribe.o(.text)
    MsgPushCmd_OtherPayloadFocalLength       0x0803c719   Thumb Code    18  psdk_msg_subcribe.o(.text)
    .text                                    0x0803c768   Section        0  psdk_payload_camera.o(.text)
    CameraCmd_SetMode                        0x0803c769   Thumb Code    40  psdk_payload_camera.o(.text)
    CameraCmd_GetMode                        0x0803c791   Thumb Code    42  psdk_payload_camera.o(.text)
    CameraCmd_ShootPhoto                     0x0803c7bb   Thumb Code    40  psdk_payload_camera.o(.text)
    CameraCmd_GetShootPhotoState             0x0803c7e3   Thumb Code    42  psdk_payload_camera.o(.text)
    CameraCmd_SetShootPhotoMode              0x0803c80d   Thumb Code    40  psdk_payload_camera.o(.text)
    CameraCmd_GetShootPhotoMode              0x0803c835   Thumb Code    42  psdk_payload_camera.o(.text)
    CameraCmd_RecordVideo                    0x0803c85f   Thumb Code    40  psdk_payload_camera.o(.text)
    CameraCmd_GetRecordVideoState            0x0803c887   Thumb Code    42  psdk_payload_camera.o(.text)
    CameraCmd_GetSDCardState                 0x0803c8b1   Thumb Code    46  psdk_payload_camera.o(.text)
    CameraCmd_FormatSDCard                   0x0803c8df   Thumb Code    42  psdk_payload_camera.o(.text)
    CameraCmd_SetMeteringMode                0x0803c909   Thumb Code    40  psdk_payload_camera.o(.text)
    CameraCmd_GetMeteringMode                0x0803c931   Thumb Code    42  psdk_payload_camera.o(.text)
    CameraCmd_SetSpotMetering                0x0803c95b   Thumb Code    40  psdk_payload_camera.o(.text)
    CameraCmd_GetSpotMetering                0x0803c983   Thumb Code    42  psdk_payload_camera.o(.text)
    CameraCmd_SetFocusMode                   0x0803c9ad   Thumb Code    40  psdk_payload_camera.o(.text)
    CameraCmd_GetFocusMode                   0x0803c9d5   Thumb Code    42  psdk_payload_camera.o(.text)
    CameraCmd_SetFocusZone                   0x0803c9ff   Thumb Code    40  psdk_payload_camera.o(.text)
    CameraCmd_GetFocusZone                   0x0803ca27   Thumb Code    42  psdk_payload_camera.o(.text)
    CameraCmd_GetDigitalZoomSpec             0x0803ca51   Thumb Code    42  psdk_payload_camera.o(.text)
    CameraCmd_SetDigitalZoomFactor           0x0803ca7b   Thumb Code    40  psdk_payload_camera.o(.text)
    CameraCmd_GetDigitalZoomFactor           0x0803caa3   Thumb Code    42  psdk_payload_camera.o(.text)
    CameraCmd_GetOpticalZoomSpec             0x0803cacd   Thumb Code    42  psdk_payload_camera.o(.text)
    CameraCmd_SetOpticalZoomFocalLength      0x0803caf7   Thumb Code    40  psdk_payload_camera.o(.text)
    CameraCmd_GetOpticalZoomFocalLength      0x0803cb1f   Thumb Code    44  psdk_payload_camera.o(.text)
    CameraCmd_GetOpticalZoomFactor           0x0803cb4b   Thumb Code    50  psdk_payload_camera.o(.text)
    CameraCmd_StartContinuousOpticalZoom     0x0803cb7d   Thumb Code    42  psdk_payload_camera.o(.text)
    CameraCmd_StopContinuousOpticalZoom      0x0803cba7   Thumb Code    42  psdk_payload_camera.o(.text)
    CameraCmd_SetFocusAssistantSettings      0x0803cbd1   Thumb Code    40  psdk_payload_camera.o(.text)
    CameraCmd_GetFocusAssistantSettings      0x0803cbf9   Thumb Code    42  psdk_payload_camera.o(.text)
    CameraCmd_GetFocusRingValueUpperBound    0x0803cc23   Thumb Code    42  psdk_payload_camera.o(.text)
    CameraCmd_SetFocusRingValue              0x0803cc4d   Thumb Code    40  psdk_payload_camera.o(.text)
    CameraCmd_GetFocusRingValue              0x0803cc75   Thumb Code    42  psdk_payload_camera.o(.text)
    CameraCmd_SupportState                   0x0803cc9f   Thumb Code    68  psdk_payload_camera.o(.text)
    .text                                    0x0803cd1c   Section        0  psdk_payload_gimbal.o(.text)
    GimbalCmd_GetGimbalState                 0x0803cd1d   Thumb Code    42  psdk_payload_gimbal.o(.text)
    GimbalCmd_SetGimbalMode                  0x0803cd47   Thumb Code    40  psdk_payload_gimbal.o(.text)
    GimbalCmd_ReturnHead                     0x0803cd6f   Thumb Code    40  psdk_payload_gimbal.o(.text)
    GimbalCmd_ControlSpeed                   0x0803cd97   Thumb Code    40  psdk_payload_gimbal.o(.text)
    GimbalCmd_ControlAngle                   0x0803cdbf   Thumb Code    40  psdk_payload_gimbal.o(.text)
    GimbalCmd_ControlJointAngle              0x0803cde7   Thumb Code    40  psdk_payload_gimbal.o(.text)
    GimbalCmd_StartCalibration               0x0803ce0f   Thumb Code    40  psdk_payload_gimbal.o(.text)
    GimbalCmd_GetCaliProgress                0x0803ce37   Thumb Code    42  psdk_payload_gimbal.o(.text)
    GimbalCmd_SupportState                   0x0803ce61   Thumb Code    36  psdk_payload_gimbal.o(.text)
    .text                                    0x0803cebc   Section        0  psdk_osdk_func.o(.text)
    OsdkFuncCmd_TT_OsdkToLoad                0x0803cebd   Thumb Code    20  psdk_osdk_func.o(.text)
    .text                                    0x0803cf94   Section        0  psdk_positioning.o(.text)
    .text                                    0x0803d000   Section        0  psdk_aes.o(.text)
    PsdkAes_SubWord                          0x0803d001   Thumb Code    72  psdk_aes.o(.text)
    PsdkAes_KeySetup                         0x0803d049   Thumb Code   192  psdk_aes.o(.text)
    PsdkAes_AddRoundKey                      0x0803d109   Thumb Code   132  psdk_aes.o(.text)
    PsdkAes_SubBytes                         0x0803d18d   Thumb Code   260  psdk_aes.o(.text)
    PsdkAes_InvSubBytes                      0x0803d291   Thumb Code   260  psdk_aes.o(.text)
    PsdkAes_ShiftRows                        0x0803d395   Thumb Code    50  psdk_aes.o(.text)
    PsdkAes_InvShiftRows                     0x0803d3c7   Thumb Code    62  psdk_aes.o(.text)
    PsdkAes_MixColumns                       0x0803d405   Thumb Code   472  psdk_aes.o(.text)
    PsdkAes_InvMixColumns                    0x0803d5dd   Thumb Code   518  psdk_aes.o(.text)
    PsdkAes_SetupEncrypt                     0x0803d7e3   Thumb Code   662  psdk_aes.o(.text)
    .text                                    0x0803ddc8   Section        0  psdk_crc.o(.text)
    .text                                    0x0803dea0   Section        0  psdk_md5.o(.text)
    .text                                    0x0803e764   Section        0  psdk_proto.o(.text)
    PsdkProto_FrameToInfoData                0x0803e765   Thumb Code   106  psdk_proto.o(.text)
    PsdkProto_InfoDataToFrame                0x0803e7cf   Thumb Code   266  psdk_proto.o(.text)
    PsdkProto_DealFrame                      0x0803ea1d   Thumb Code   130  psdk_proto.o(.text)
    .text                                    0x0803ee4c   Section        0  psdk_debug.o(.text)
    .text                                    0x0803eea0   Section        0  psdk_proto_parse.o(.text)
    .text                                    0x0803ef64   Section        0  psdk_arch_sys.o(.text)
    .text                                    0x0803f084   Section        0  cmsis_os.o(.text)
    makeFreeRtosPriority                     0x0803f085   Thumb Code    12  cmsis_os.o(.text)
    makeCmsisPriority                        0x0803f091   Thumb Code    14  cmsis_os.o(.text)
    inHandlerMode                            0x0803f09f   Thumb Code    16  cmsis_os.o(.text)
    .text                                    0x0803f90c   Section        0  event_groups.o(.text)
    prvTestWaitCondition                     0x0803fa89   Thumb Code    24  event_groups.o(.text)
    .text                                    0x0803fc58   Section        0  list.o(.text)
    .text                                    0x0803fce0   Section        0  queue.o(.text)
    prvInitialiseNewQueue                    0x0803fd67   Thumb Code    34  queue.o(.text)
    prvUnlockQueue                           0x0803fdcd   Thumb Code   106  queue.o(.text)
    prvIsQueueFull                           0x0803fe37   Thumb Code    30  queue.o(.text)
    prvCopyDataToQueue                       0x0803fe55   Thumb Code   110  queue.o(.text)
    prvInitialiseMutex                       0x08040023   Thumb Code    22  queue.o(.text)
    prvIsQueueEmpty                          0x08040091   Thumb Code    26  queue.o(.text)
    prvCopyDataFromQueue                     0x080400ab   Thumb Code    40  queue.o(.text)
    .text                                    0x08040698   Section        0  tasks.o(.text)
    prvInitialiseTaskLists                   0x08040699   Thumb Code    78  tasks.o(.text)
    prvAddNewTaskToReadyList                 0x080406e7   Thumb Code   126  tasks.o(.text)
    prvInitialiseNewTask                     0x08040765   Thumb Code   154  tasks.o(.text)
    prvResetNextTaskUnblockTime              0x0804085f   Thumb Code    30  tasks.o(.text)
    prvDeleteTCB                             0x0804087d   Thumb Code    20  tasks.o(.text)
    prvAddCurrentTaskToDelayedList           0x08040acd   Thumb Code   102  tasks.o(.text)
    prvTaskIsTaskSuspended                   0x08040e7d   Thumb Code    62  tasks.o(.text)
    prvCheckTasksWaitingTermination          0x08040fb1   Thumb Code    76  tasks.o(.text)
    prvIdleTask                              0x08040ffd   Thumb Code    30  tasks.o(.text)
    prvTaskCheckFreeStackSpace               0x080410bf   Thumb Code    20  tasks.o(.text)
    prvListTasksWithinSingleList             0x0804114b   Thumb Code    90  tasks.o(.text)
    prvWriteNameToBuffer                     0x0804159b   Thumb Code    36  tasks.o(.text)
    .text                                    0x08041a34   Section        0  heap_4.o(.text)
    prvInsertBlockIntoFreeList               0x08041a35   Thumb Code    78  heap_4.o(.text)
    prvHeapInit                              0x08041a83   Thumb Code    68  heap_4.o(.text)
    .text                                    0x08041c0c   Section        0  port.o(.text)
    prvTaskExitError                         0x08041c0d   Thumb Code    40  port.o(.text)
    .text                                    0x08041dd0   Section        0  system_stm32f10x.o(.text)
    SetSysClockTo72                          0x08041dd1   Thumb Code   166  system_stm32f10x.o(.text)
    SetSysClock                              0x08041e77   Thumb Code     2  system_stm32f10x.o(.text)
    .text                                    0x08041f44   Section        0  misc.o(.text)
    .text                                    0x08041ffc   Section        0  stm32f10x_dma.o(.text)
    .text                                    0x080421e4   Section        0  stm32f10x_exti.o(.text)
    .text                                    0x080422d0   Section        0  stm32f10x_gpio.o(.text)
    .text                                    0x08042568   Section        0  stm32f10x_rcc.o(.text)
    .text                                    0x0804285c   Section        0  stm32f10x_sdio.o(.text)
    .text                                    0x08042a0c   Section        0  stm32f10x_tim.o(.text)
    TI4_Config                               0x08042e75   Thumb Code   102  stm32f10x_tim.o(.text)
    TI3_Config                               0x08042eeb   Thumb Code    98  stm32f10x_tim.o(.text)
    TI2_Config                               0x08042f65   Thumb Code   102  stm32f10x_tim.o(.text)
    TI1_Config                               0x08042fdb   Thumb Code    94  stm32f10x_tim.o(.text)
    .text                                    0x08043638   Section        0  stm32f10x_usart.o(.text)
    .text                                    0x080439d4   Section        0  diskio.o(.text)
    .text                                    0x08043b34   Section        0  ff.o(.text)
    mem_cpy                                  0x08043b35   Thumb Code    18  ff.o(.text)
    mem_set                                  0x08043b47   Thumb Code    16  ff.o(.text)
    mem_cmp                                  0x08043b57   Thumb Code    26  ff.o(.text)
    chk_chr                                  0x08043b71   Thumb Code    16  ff.o(.text)
    sync_window                              0x08043b81   Thumb Code    84  ff.o(.text)
    move_window                              0x08043bd5   Thumb Code    52  ff.o(.text)
    sync_fs                                  0x08043c09   Thumb Code   180  ff.o(.text)
    remove_chain                             0x08043eff   Thumb Code   100  ff.o(.text)
    create_chain                             0x08043f63   Thumb Code   166  ff.o(.text)
    dir_sdi                                  0x08044009   Thumb Code   158  ff.o(.text)
    dir_next                                 0x080440a7   Thumb Code   274  ff.o(.text)
    dir_alloc                                0x080441b9   Thumb Code    68  ff.o(.text)
    ld_clust                                 0x080441fd   Thumb Code    30  ff.o(.text)
    st_clust                                 0x0804421b   Thumb Code    16  ff.o(.text)
    cmp_lfn                                  0x0804422b   Thumb Code   144  ff.o(.text)
    pick_lfn                                 0x080442bb   Thumb Code   118  ff.o(.text)
    fit_lfn                                  0x08044331   Thumb Code   104  ff.o(.text)
    gen_numname                              0x08044399   Thumb Code   146  ff.o(.text)
    sum_sfn                                  0x0804442b   Thumb Code    26  ff.o(.text)
    dir_find                                 0x08044445   Thumb Code   196  ff.o(.text)
    dir_read                                 0x08044509   Thumb Code   178  ff.o(.text)
    dir_register                             0x080445bb   Thumb Code   270  ff.o(.text)
    dir_remove                               0x080446c9   Thumb Code    94  ff.o(.text)
    get_fileinfo                             0x08044727   Thumb Code   222  ff.o(.text)
    create_name                              0x08044805   Thumb Code   538  ff.o(.text)
    follow_path                              0x08044a1f   Thumb Code   106  ff.o(.text)
    get_ldnumber                             0x08044a89   Thumb Code    66  ff.o(.text)
    check_fs                                 0x08044acb   Thumb Code   120  ff.o(.text)
    find_volume                              0x08044b43   Thumb Code   852  ff.o(.text)
    validate                                 0x08044e97   Thumb Code    40  ff.o(.text)
    putc_bfd                                 0x080461eb   Thumb Code    58  ff.o(.text)
    .text                                    0x080464cc   Section        0  cc936.o(.text)
    .text                                    0x08046570   Section        0  uldiv.o(.text)
    .text                                    0x080465d4   Section        0  localtime_r.o(.text)
    .text                                    0x08046660   Section        0  mktime.o(.text)
    .text                                    0x08046708   Section        0  memcpya.o(.text)
    .text                                    0x0804672c   Section        0  memseta.o(.text)
    .text                                    0x08046750   Section        0  strncpy.o(.text)
    .text                                    0x08046768   Section        0  strlen.o(.text)
    .text                                    0x08046776   Section        0  strcmp.o(.text)
    .text                                    0x08046792   Section        0  strcpy.o(.text)
    .text                                    0x080467a4   Section        0  atoi.o(.text)
    .text                                    0x080467be   Section        0  fmul.o(.text)
    .text                                    0x08046822   Section        0  dadd.o(.text)
    .text                                    0x08046970   Section        0  dmul.o(.text)
    .text                                    0x08046a54   Section        0  ddiv.o(.text)
    .text                                    0x08046b32   Section        0  dflti.o(.text)
    .text                                    0x08046b54   Section        0  dfltui.o(.text)
    .text                                    0x08046b6e   Section        0  ffixi.o(.text)
    .text                                    0x08046ba0   Section        0  dfixi.o(.text)
    .text                                    0x08046bde   Section        0  dfixui.o(.text)
    .text                                    0x08046c10   Section       48  cdcmple.o(.text)
    .text                                    0x08046c40   Section        0  d2f.o(.text)
    .text                                    0x08046c78   Section        0  uidiv.o(.text)
    .text                                    0x08046ca4   Section        0  llshl.o(.text)
    .text                                    0x08046cc2   Section        0  llushr.o(.text)
    .text                                    0x08046ce2   Section        0  llsshr.o(.text)
    .text                                    0x08046d06   Section        0  strtol.o(.text)
    .text                                    0x08046d76   Section        0  iusefp.o(.text)
    .text                                    0x08046d76   Section        0  fepilogue.o(.text)
    .text                                    0x08046de4   Section        0  depilogue.o(.text)
    .text                                    0x08046e9e   Section        0  dfixul.o(.text)
    .text                                    0x08046ed0   Section       48  cdrcmple.o(.text)
    .text                                    0x08046f00   Section       36  init.o(.text)
    .text                                    0x08046f24   Section        0  ctype_o.o(.text)
    .text                                    0x08046f2c   Section        0  _strtoul.o(.text)
    .text                                    0x08046fca   Section        0  _chval.o(.text)
    .text                                    0x08046fe6   Section        0  __dczerorl2.o(.text)
    i.__0sprintf                             0x0804703c   Section        0  printfa.o(i.__0sprintf)
    i.__0vsnprintf                           0x08047064   Section        0  printfa.o(i.__0vsnprintf)
    i.__aeabi_errno_addr                     0x08047090   Section        0  errno.o(i.__aeabi_errno_addr)
    i.__scatterload_copy                     0x08047098   Section       14  handlers.o(i.__scatterload_copy)
    i.__scatterload_null                     0x080470a6   Section        2  handlers.o(i.__scatterload_null)
    i.__scatterload_zeroinit                 0x080470a8   Section       14  handlers.o(i.__scatterload_zeroinit)
    i._fp_digits                             0x080470b8   Section        0  printfa.o(i._fp_digits)
    _fp_digits                               0x080470b9   Thumb Code   366  printfa.o(i._fp_digits)
    i._printf_core                           0x0804723c   Section        0  printfa.o(i._printf_core)
    _printf_core                             0x0804723d   Thumb Code  1744  printfa.o(i._printf_core)
    i._printf_post_padding                   0x08047918   Section        0  printfa.o(i._printf_post_padding)
    _printf_post_padding                     0x08047919   Thumb Code    36  printfa.o(i._printf_post_padding)
    i._printf_pre_padding                    0x0804793c   Section        0  printfa.o(i._printf_pre_padding)
    _printf_pre_padding                      0x0804793d   Thumb Code    46  printfa.o(i._printf_pre_padding)
    i._snputc                                0x0804796a   Section        0  printfa.o(i._snputc)
    _snputc                                  0x0804796b   Thumb Code    22  printfa.o(i._snputc)
    i._sputc                                 0x08047980   Section        0  printfa.o(i._sputc)
    _sputc                                   0x08047981   Thumb Code    10  printfa.o(i._sputc)
    .constdata                               0x0804798a   Section       86  application.o(.constdata)
    __FUNCTION__                             0x0804798a   Data          15  application.o(.constdata)
    __FUNCTION__                             0x08047999   Data          13  application.o(.constdata)
    __FUNCTION__                             0x080479a6   Data          19  application.o(.constdata)
    __FUNCTION__                             0x080479b9   Data          30  application.o(.constdata)
    __FUNCTION__                             0x080479d7   Data           9  application.o(.constdata)
    .constdata                               0x080479e0   Section      276  main.o(.constdata)
    .constdata                               0x08047af4   Section      624  test_app_func.o(.constdata)
    s_TestWidgetList                         0x08047af4   Data         624  test_app_func.o(.constdata)
    .constdata                               0x08047d64   Section        1  test_app_func.o(.constdata)
    .constdata                               0x08047d65   Section       54  test_app_func.o(.constdata)
    __FUNCTION__                             0x08047d65   Data          30  test_app_func.o(.constdata)
    __FUNCTION__                             0x08047d83   Data          24  test_app_func.o(.constdata)
    .constdata                               0x08047d9c   Section       48  test_msg_push.o(.constdata)
    .constdata                               0x08047dcc   Section      144  test_payload_cam_emu.o(.constdata)
    .constdata                               0x08047e5c   Section      378  test_payload_cam_emu.o(.constdata)
    __FUNCTION__                             0x08047e5c   Data          21  test_payload_cam_emu.o(.constdata)
    __FUNCTION__                             0x08047e71   Data          19  test_payload_cam_emu.o(.constdata)
    __FUNCTION__                             0x08047e84   Data          26  test_payload_cam_emu.o(.constdata)
    __FUNCTION__                             0x08047e9e   Data          20  test_payload_cam_emu.o(.constdata)
    __FUNCTION__                             0x08047eb2   Data          20  test_payload_cam_emu.o(.constdata)
    __FUNCTION__                             0x08047ec6   Data          23  test_payload_cam_emu.o(.constdata)
    __FUNCTION__                             0x08047edd   Data          23  test_payload_cam_emu.o(.constdata)
    __FUNCTION__                             0x08047ef4   Data          20  test_payload_cam_emu.o(.constdata)
    __FUNCTION__                             0x08047f08   Data          20  test_payload_cam_emu.o(.constdata)
    __FUNCTION__                             0x08047f1c   Data          33  test_payload_cam_emu.o(.constdata)
    __FUNCTION__                             0x08047f3d   Data          25  test_payload_cam_emu.o(.constdata)
    __FUNCTION__                             0x08047f56   Data          28  test_payload_cam_emu.o(.constdata)
    __FUNCTION__                             0x08047f72   Data          33  test_payload_cam_emu.o(.constdata)
    __FUNCTION__                             0x08047f93   Data          34  test_payload_cam_emu.o(.constdata)
    __FUNCTION__                             0x08047fb5   Data          33  test_payload_cam_emu.o(.constdata)
    .constdata                               0x08047fd8   Section       32  test_payload_gimbal_emu.o(.constdata)
    .constdata                               0x08047ff8   Section      179  test_payload_gimbal_emu.o(.constdata)
    __FUNCTION__                             0x08047ff8   Data          24  test_payload_gimbal_emu.o(.constdata)
    __FUNCTION__                             0x08048010   Data          21  test_payload_gimbal_emu.o(.constdata)
    __FUNCTION__                             0x08048025   Data          23  test_payload_gimbal_emu.o(.constdata)
    __FUNCTION__                             0x0804803c   Data          23  test_payload_gimbal_emu.o(.constdata)
    __FUNCTION__                             0x08048053   Data          28  test_payload_gimbal_emu.o(.constdata)
    __FUNCTION__                             0x0804806f   Data          27  test_payload_gimbal_emu.o(.constdata)
    __FUNCTION__                             0x0804808a   Data          33  test_payload_gimbal_emu.o(.constdata)
    .constdata                               0x080480ac   Section        4  test_osdk_func.o(.constdata)
    .constdata                               0x080480b0   Section       31  test_osdk_func.o(.constdata)
    __FUNCTION__                             0x080480b0   Data          31  test_osdk_func.o(.constdata)
    .constdata                               0x080480cf   Section       53  test_positioning.o(.constdata)
    __FUNCTION__                             0x080480cf   Data          32  test_positioning.o(.constdata)
    __FUNCTION__                             0x080480ef   Data          21  test_positioning.o(.constdata)
    .constdata                               0x08048104   Section        9  cam_task.o(.constdata)
    __FUNCTION__                             0x08048104   Data           9  cam_task.o(.constdata)
    .constdata                               0x0804810d   Section        9  key_task.o(.constdata)
    __FUNCTION__                             0x0804810d   Data           9  key_task.o(.constdata)
    .constdata                               0x08048116   Section       10  oled_task.o(.constdata)
    __FUNCTION__                             0x08048116   Data          10  oled_task.o(.constdata)
    .constdata                               0x08048120   Section        9  rgb_task.o(.constdata)
    __FUNCTION__                             0x08048120   Data           9  rgb_task.o(.constdata)
    .constdata                               0x08048129   Section       13  runinit_task.o(.constdata)
    __FUNCTION__                             0x08048129   Data          13  runinit_task.o(.constdata)
    .constdata                               0x08048136   Section       13  trigger_task.o(.constdata)
    __FUNCTION__                             0x08048136   Data          13  trigger_task.o(.constdata)
    .constdata                               0x08048143   Section       12  u2rece_task.o(.constdata)
    __FUNCTION__                             0x08048143   Data          12  u2rece_task.o(.constdata)
    .constdata                               0x0804814f   Section       12  u2send_task.o(.constdata)
    __FUNCTION__                             0x0804814f   Data          12  u2send_task.o(.constdata)
    .constdata                               0x0804815b   Section        9  fan_task.o(.constdata)
    __FUNCTION__                             0x0804815b   Data           9  fan_task.o(.constdata)
    .constdata                               0x08048164   Section     1520  cocoguojia_oled.o(.constdata)
    .constdata                               0x08048754   Section       48  psdk_upper.o(.constdata)
    s_payloadStateProtCmdList                0x08048754   Data          48  psdk_upper.o(.constdata)
    .constdata                               0x08048784   Section      113  psdk_app_func.o(.constdata)
    s_appFuncProtCmdList                     0x08048784   Data          56  psdk_app_func.o(.constdata)
    __FUNCTION__                             0x080487bc   Data          31  psdk_app_func.o(.constdata)
    __FUNCTION__                             0x080487db   Data          26  psdk_app_func.o(.constdata)
    .constdata                               0x080487f8   Section       96  psdk_msg_subcribe.o(.constdata)
    s_PushDataMsgSubProtCmdList              0x080487f8   Data          96  psdk_msg_subcribe.o(.constdata)
    .constdata                               0x08048858   Section      264  psdk_payload_camera.o(.constdata)
    s_PayloadCameraCmdList                   0x08048858   Data         264  psdk_payload_camera.o(.constdata)
    .constdata                               0x08048960   Section       72  psdk_payload_gimbal.o(.constdata)
    s_PayloadGimbalCmdList                   0x08048960   Data          72  psdk_payload_gimbal.o(.constdata)
    .constdata                               0x080489a8   Section        8  psdk_osdk_func.o(.constdata)
    s_osdkFuncProtCmdList                    0x080489a8   Data           8  psdk_osdk_func.o(.constdata)
    .constdata                               0x080489b0   Section     2108  psdk_aes.o(.constdata)
    s_aesSbox                                0x080489b0   Data         256  psdk_aes.o(.constdata)
    s_aesInvsbox                             0x08048ab0   Data         256  psdk_aes.o(.constdata)
    s_gfMul                                  0x08048bb0   Data        1536  psdk_aes.o(.constdata)
    .constdata                               0x080491ec   Section      768  psdk_crc.o(.constdata)
    s_CrcTab8                                0x080491ec   Data         256  psdk_crc.o(.constdata)
    s_CrcTab16                               0x080492ec   Data         512  psdk_crc.o(.constdata)
    .constdata                               0x080494ec   Section       47  psdk_proto.o(.constdata)
    __FUNCTION__                             0x080494ec   Data          18  psdk_proto.o(.constdata)
    __FUNCTION__                             0x080494fe   Data          29  psdk_proto.o(.constdata)
    .constdata                               0x0804951b   Section       23  psdk_debug.o(.constdata)
    __FUNCTION__                             0x0804951b   Data          23  psdk_debug.o(.constdata)
    .constdata                               0x08049534   Section      104  ff.o(.constdata)
    LfnOfs                                   0x08049534   Data          13  ff.o(.constdata)
    vst                                      0x08049544   Data          44  ff.o(.constdata)
    cst                                      0x08049570   Data          44  ff.o(.constdata)
    .constdata                               0x0804959c   Section    176320  cc936.o(.constdata)
    uni2oem                                  0x0804959c   Data       87172  cc936.o(.constdata)
    oem2uni                                  0x0805ea20   Data       87172  cc936.o(.constdata)
    lower                                    0x08073ea4   Data         988  cc936.o(.constdata)
    upper                                    0x08074280   Data         988  cc936.o(.constdata)
    .constdata                               0x0807465c   Section       12  localtime_r.o(.constdata)
    monlen                                   0x0807465c   Data          12  localtime_r.o(.constdata)
    .constdata                               0x08074668   Section       12  mktime.o(.constdata)
    monlen                                   0x08074668   Data          12  mktime.o(.constdata)
    .constdata                               0x08074674   Section      129  ctype_o.o(.constdata)
    .constdata                               0x080746f8   Section        4  ctype_o.o(.constdata)
    table                                    0x080746f8   Data           4  ctype_o.o(.constdata)
    .conststring                             0x080746fc   Section      242  application.o(.conststring)
    .conststring                             0x080747f0   Section      183  main.o(.conststring)
    .conststring                             0x080748a8   Section      218  test_app_func.o(.conststring)
    .conststring                             0x08074984   Section      160  psdk_app_func.o(.conststring)
    .conststring                             0x08074a24   Section       82  psdk_proto.o(.conststring)
    .data                                    0x20000000   Section       43  application.o(.data)
    s_fixSkyport                             0x20000002   Data           4  application.o(.data)
    .data                                    0x2000002c   Section       64  main.o(.data)
    .data                                    0x2000006c   Section      108  test_app_func.o(.data)
    textInputBoxDisplayControlFlag           0x2000006c   Data           1  test_app_func.o(.data)
    switch1Val                               0x2000006d   Data           4  test_app_func.o(.data)
    scale1Val                                0x20000071   Data           4  test_app_func.o(.data)
    input1Val                                0x20000075   Data           4  test_app_func.o(.data)
    list1Val                                 0x20000079   Data           4  test_app_func.o(.data)
    switch2Val                               0x2000007d   Data           4  test_app_func.o(.data)
    list3Val                                 0x20000081   Data           4  test_app_func.o(.data)
    list4Val                                 0x20000085   Data           4  test_app_func.o(.data)
    list2Val                                 0x20000089   Data           4  test_app_func.o(.data)
    input2Val                                0x2000008d   Data           4  test_app_func.o(.data)
    textInputBoxName                         0x20000098   Data          32  test_app_func.o(.data)
    textInputBoxDescription                  0x200000b8   Data          32  test_app_func.o(.data)
    .data                                    0x200000d8   Section       80  test_payload_cam_emu.o(.data)
    s_cameraMode                             0x200000d8   Data           1  test_payload_cam_emu.o(.data)
    photographyMode                          0x200000d9   Data           1  test_payload_cam_emu.o(.data)
    burstCount                               0x200000da   Data           1  test_payload_cam_emu.o(.data)
    intervalCount                            0x200000db   Data           1  test_payload_cam_emu.o(.data)
    photographyIsOnInterval                  0x200000dc   Data           1  test_payload_cam_emu.o(.data)
    isShootingSinglePhoto                    0x200000dd   Data           1  test_payload_cam_emu.o(.data)
    isShootingBurstPhoto                     0x200000de   Data           1  test_payload_cam_emu.o(.data)
    isStoringPhoto                           0x200000df   Data           1  test_payload_cam_emu.o(.data)
    recordingState                           0x200000e0   Data           1  test_payload_cam_emu.o(.data)
    insertState                              0x200000e1   Data           1  test_payload_cam_emu.o(.data)
    isFormatting                             0x200000e2   Data           1  test_payload_cam_emu.o(.data)
    meteringMode                             0x200000e3   Data           1  test_payload_cam_emu.o(.data)
    meteringCol                              0x200000e4   Data           1  test_payload_cam_emu.o(.data)
    meteringRow                              0x200000e5   Data           1  test_payload_cam_emu.o(.data)
    focusMode                                0x200000e6   Data           1  test_payload_cam_emu.o(.data)
    isEnableMF                               0x200000e7   Data           1  test_payload_cam_emu.o(.data)
    isEnableAF                               0x200000e8   Data           1  test_payload_cam_emu.o(.data)
    isZooming                                0x200000e9   Data           1  test_payload_cam_emu.o(.data)
    zoomDirection                            0x200000ea   Data           1  test_payload_cam_emu.o(.data)
    zoomSpeed                                0x200000eb   Data           1  test_payload_cam_emu.o(.data)
    intervalTime                             0x200000ec   Data           2  test_payload_cam_emu.o(.data)
    focusRingValueUpperBound                 0x200000ee   Data           2  test_payload_cam_emu.o(.data)
    focusRingValue                           0x200000f0   Data           2  test_payload_cam_emu.o(.data)
    maxFocalLength                           0x200000f2   Data           2  test_payload_cam_emu.o(.data)
    minFocalLength                           0x200000f4   Data           2  test_payload_cam_emu.o(.data)
    focalLengthStep                          0x200000f6   Data           2  test_payload_cam_emu.o(.data)
    currentFocalLength                       0x200000f8   Data           2  test_payload_cam_emu.o(.data)
    ShotStTimeMs                             0x200000fc   Data           4  test_payload_cam_emu.o(.data)
    recordingStTimeMs                        0x20000100   Data           4  test_payload_cam_emu.o(.data)
    capacity                                 0x20000104   Data           4  test_payload_cam_emu.o(.data)
    remainCapacity                           0x20000108   Data           4  test_payload_cam_emu.o(.data)
    remainShots                              0x2000010c   Data           4  test_payload_cam_emu.o(.data)
    remainRecordTime                         0x20000110   Data           4  test_payload_cam_emu.o(.data)
    formatStTimeMs                           0x20000114   Data           4  test_payload_cam_emu.o(.data)
    focusX                                   0x20000118   Data           4  test_payload_cam_emu.o(.data)
    focusY                                   0x2000011c   Data           4  test_payload_cam_emu.o(.data)
    digitalFactor                            0x20000120   Data           4  test_payload_cam_emu.o(.data)
    opticalFactor                            0x20000124   Data           4  test_payload_cam_emu.o(.data)
    .data                                    0x20000128   Section       22  test_payload_gimbal_emu.o(.data)
    gimbalMode                               0x20000128   Data           1  test_payload_gimbal_emu.o(.data)
    isYawLimit                               0x20000129   Data           1  test_payload_gimbal_emu.o(.data)
    isRollLimit                              0x2000012a   Data           1  test_payload_gimbal_emu.o(.data)
    isPitchLimit                             0x2000012b   Data           1  test_payload_gimbal_emu.o(.data)
    pitch                                    0x2000012c   Data           2  test_payload_gimbal_emu.o(.data)
    roll                                     0x2000012e   Data           2  test_payload_gimbal_emu.o(.data)
    yaw                                      0x20000130   Data           2  test_payload_gimbal_emu.o(.data)
    pitchSpeed                               0x20000132   Data           2  test_payload_gimbal_emu.o(.data)
    rollSpeed                                0x20000134   Data           2  test_payload_gimbal_emu.o(.data)
    yawSpeed                                 0x20000136   Data           2  test_payload_gimbal_emu.o(.data)
    pitchJoint                               0x20000138   Data           2  test_payload_gimbal_emu.o(.data)
    rollJoint                                0x2000013a   Data           2  test_payload_gimbal_emu.o(.data)
    yawJoint                                 0x2000013c   Data           2  test_payload_gimbal_emu.o(.data)
    .data                                    0x20000140   Section        8  test_positioning.o(.data)
    syncedTimeExist                          0x20000140   Data           1  test_positioning.o(.data)
    eventIndex                               0x20000144   Data           4  test_positioning.o(.data)
    .data                                    0x20000148   Section        1  test_positioning.o(.data)
    .data                                    0x2000014c   Section       12  pps.o(.data)
    .data                                    0x20000158   Section        4  hotshoe.o(.data)
    s_hotShoeSem                             0x20000158   Data           4  hotshoe.o(.data)
    .data                                    0x2000015c   Section        4  cam_task.o(.data)
    .data                                    0x20000160   Section        4  key_task.o(.data)
    .data                                    0x20000164   Section        4  oled_task.o(.data)
    .data                                    0x20000168   Section        8  rgb_task.o(.data)
    .data                                    0x20000170   Section        4  runinit_task.o(.data)
    .data                                    0x20000174   Section       16  trigger_task.o(.data)
    .data                                    0x20000184   Section        4  u2rece_task.o(.data)
    .data                                    0x20000188   Section        2  u2rece_task.o(.data)
    .data                                    0x2000018a   Section        1  u2rece_task.o(.data)
    .data                                    0x2000018c   Section       22  u2rece_task.o(.data)
    .data                                    0x200001a2   Section        6  u2rece_task.o(.data)
    .data                                    0x200001a8   Section        1  u2rece_task.o(.data)
    .data                                    0x200001a9   Section        1  u2rece_task.o(.data)
    .data                                    0x200001aa   Section        1  u2rece_task.o(.data)
    .data                                    0x200001ab   Section        1  u2rece_task.o(.data)
    .data                                    0x200001ac   Section        1  u2rece_task.o(.data)
    .data                                    0x200001b0   Section        4  u2rece_task.o(.data)
    .data                                    0x200001b4   Section        1  u2rece_task.o(.data)
    .data                                    0x200001b5   Section        1  u2rece_task.o(.data)
    .data                                    0x200001b8   Section        4  u2send_task.o(.data)
    .data                                    0x200001bc   Section        8  fan_task.o(.data)
    .data                                    0x200001c4   Section        1  fan_task.o(.data)
    .data                                    0x200001c5   Section        8  cocoguojia_24c02.o(.data)
    .data                                    0x200001cd   Section     2757  cocoguojia_oled.o(.data)
    i                                        0x200001cd   Data           1  cocoguojia_oled.o(.data)
    i                                        0x200001ce   Data           1  cocoguojia_oled.o(.data)
    i                                        0x200001cf   Data           1  cocoguojia_oled.o(.data)
    k                                        0x200001d0   Data           1  cocoguojia_oled.o(.data)
    i                                        0x200001d1   Data           1  cocoguojia_oled.o(.data)
    .data                                    0x20000c94   Section       16  cocoguojia_usart.o(.data)
    isLogInit                                0x20000c94   Data           1  cocoguojia_usart.o(.data)
    s_uart1Mutex                             0x20000c98   Data           4  cocoguojia_usart.o(.data)
    s_uart2Mutex                             0x20000c9c   Data           4  cocoguojia_usart.o(.data)
    s_uart3Mutex                             0x20000ca0   Data           4  cocoguojia_usart.o(.data)
    .data                                    0x20000ca4   Section      360  cocoguojia_sdcard.o(.data)
    Flag_DIR                                 0x20000ca7   Data           1  cocoguojia_sdcard.o(.data)
    .data                                    0x20000e0c   Section       20  cocoguojia_sdio.o(.data)
    sdioFac_us                               0x20000e0d   Data           1  cocoguojia_sdio.o(.data)
    CardType                                 0x20000e10   Data           4  cocoguojia_sdio.o(.data)
    RCA                                      0x20000e14   Data           4  cocoguojia_sdio.o(.data)
    .data                                    0x20000e20   Section        4  psdk_upper.o(.data)
    s_fixSkyport                             0x20000e20   Data           4  psdk_upper.o(.data)
    .data                                    0x20000e24   Section       24  psdk_app_func.o(.data)
    s_widgetItemCount                        0x20000e24   Data           1  psdk_app_func.o(.data)
    s_receiveFromAppFunc                     0x20000e28   Data           4  psdk_app_func.o(.data)
    s_getWidgetValueFunc                     0x20000e2c   Data           4  psdk_app_func.o(.data)
    s_setWidgetValueFunc                     0x20000e30   Data           4  psdk_app_func.o(.data)
    s_getTextInputBoxParamFunc               0x20000e34   Data           4  psdk_app_func.o(.data)
    s_widgetList                             0x20000e38   Data           4  psdk_app_func.o(.data)
    .data                                    0x20000e3c   Section        1  psdk_payload_camera.o(.data)
    s_isSupportCamera                        0x20000e3c   Data           1  psdk_payload_camera.o(.data)
    .data                                    0x20000e3d   Section        1  psdk_payload_gimbal.o(.data)
    s_isSupportGimbal                        0x20000e3d   Data           1  psdk_payload_gimbal.o(.data)
    .data                                    0x20000e40   Section        4  psdk_osdk_func.o(.data)
    s_osdkFuncHandler                        0x20000e40   Data           4  psdk_osdk_func.o(.data)
    .data                                    0x20000e44   Section     1024  psdk_crc.o(.data)
    s_CrcTab32                               0x20000e44   Data        1024  psdk_crc.o(.data)
    .data                                    0x20001244   Section       60  tasks.o(.data)
    uxDeletedTasksWaitingCleanUp             0x20001248   Data           4  tasks.o(.data)
    uxCurrentNumberOfTasks                   0x2000124c   Data           4  tasks.o(.data)
    xTickCount                               0x20001250   Data           4  tasks.o(.data)
    uxTopReadyPriority                       0x20001254   Data           4  tasks.o(.data)
    xSchedulerRunning                        0x20001258   Data           4  tasks.o(.data)
    uxPendedTicks                            0x2000125c   Data           4  tasks.o(.data)
    xYieldPending                            0x20001260   Data           4  tasks.o(.data)
    xNumOfOverflows                          0x20001264   Data           4  tasks.o(.data)
    uxTaskNumber                             0x20001268   Data           4  tasks.o(.data)
    xNextTaskUnblockTime                     0x2000126c   Data           4  tasks.o(.data)
    xIdleTaskHandle                          0x20001270   Data           4  tasks.o(.data)
    uxSchedulerSuspended                     0x20001274   Data           4  tasks.o(.data)
    pxDelayedTaskList                        0x20001278   Data           4  tasks.o(.data)
    pxOverflowDelayedTaskList                0x2000127c   Data           4  tasks.o(.data)
    .data                                    0x20001280   Section       24  heap_4.o(.data)
    pxEnd                                    0x20001280   Data           4  heap_4.o(.data)
    xFreeBytesRemaining                      0x20001284   Data           4  heap_4.o(.data)
    xMinimumEverFreeBytesRemaining           0x20001288   Data           4  heap_4.o(.data)
    xBlockAllocatedBit                       0x2000128c   Data           4  heap_4.o(.data)
    xStart                                   0x20001290   Data           8  heap_4.o(.data)
    .data                                    0x20001298   Section       12  port.o(.data)
    ucMaxSysCallPriority                     0x20001298   Data           1  port.o(.data)
    uxCriticalNesting                        0x2000129c   Data           4  port.o(.data)
    ulMaxPRIGROUPValue                       0x200012a0   Data           4  port.o(.data)
    .data                                    0x200012a4   Section       20  system_stm32f10x.o(.data)
    .data                                    0x200012b8   Section       20  stm32f10x_rcc.o(.data)
    ADCPrescTable                            0x200012b8   Data           4  stm32f10x_rcc.o(.data)
    APBAHBPrescTable                         0x200012bc   Data          16  stm32f10x_rcc.o(.data)
    .data                                    0x200012cc   Section       12  ff.o(.data)
    Fsid                                     0x200012cc   Data           4  ff.o(.data)
    FatFs                                    0x200012d0   Data           8  ff.o(.data)
    .data                                    0x200012d8   Section        4  errno.o(.data)
    _errno                                   0x200012d8   Data           4  errno.o(.data)
    .bss                                     0x200012dc   Section     3444  application.o(.bss)
    s_psdkUpperHandle                        0x20001310   Data        1508  application.o(.bss)
    s_uartRecBuf                             0x200018f4   Data        1024  application.o(.bss)
    s_userInfo                               0x20001cf4   Data         148  application.o(.bss)
    s_printBuffer                            0x20001d88   Data         512  application.o(.bss)
    .bss                                     0x20002050   Section     1024  test_app_func.o(.bss)
    receivePrint                             0x20002050   Data        1024  test_app_func.o(.bss)
    .bss                                     0x20002450   Section       68  test_msg_push.o(.bss)
    .bss                                     0x20002494   Section      341  test_positioning.o(.bss)
    syncedTime                               0x200024bc   Data          16  test_positioning.o(.bss)
    .bss                                     0x200025ea   Section       12  u2rece_task.o(.bss)
    .bss                                     0x200025f8   Section     3144  cocoguojia_usart.o(.bss)
    s_uart1ReadRingBuffer                    0x200025f8   Data          12  cocoguojia_usart.o(.bss)
    s_uart1WriteRingBuffer                   0x20002604   Data          12  cocoguojia_usart.o(.bss)
    s_uart1ReadBuf                           0x20002610   Data         512  cocoguojia_usart.o(.bss)
    s_uart1WriteBuf                          0x20002810   Data         512  cocoguojia_usart.o(.bss)
    s_uart2ReadRingBuffer                    0x20002a10   Data          12  cocoguojia_usart.o(.bss)
    s_uart2WriteRingBuffer                   0x20002a1c   Data          12  cocoguojia_usart.o(.bss)
    s_uart2ReadBuf                           0x20002a28   Data         512  cocoguojia_usart.o(.bss)
    s_uart2WriteBuf                          0x20002c28   Data         512  cocoguojia_usart.o(.bss)
    s_uart3ReadRingBuffer                    0x20002e28   Data          12  cocoguojia_usart.o(.bss)
    s_uart3WriteRingBuffer                   0x20002e34   Data          12  cocoguojia_usart.o(.bss)
    s_uart3ReadBuf                           0x20002e40   Data         512  cocoguojia_usart.o(.bss)
    s_uart3WriteBuf                          0x20003040   Data         512  cocoguojia_usart.o(.bss)
    .bss                                     0x20003240   Section     8984  cocoguojia_sdcard.o(.bss)
    .bss                                     0x20005558   Section      204  cocoguojia_sdio.o(.bss)
    CSD_Tab                                  0x20005558   Data          16  cocoguojia_sdio.o(.bss)
    CID_Tab                                  0x20005568   Data          16  cocoguojia_sdio.o(.bss)
    SDSTATUS_Tab                             0x20005578   Data          16  cocoguojia_sdio.o(.bss)
    .bss                                     0x20005624   Section      181  psdk_upper.o(.bss)
    s_userInfo                               0x20005624   Data         148  psdk_upper.o(.bss)
    s_customInfo                             0x200056b8   Data          33  psdk_upper.o(.bss)
    .bss                                     0x200056dc   Section       48  psdk_msg_subcribe.o(.bss)
    s_PushDataMsgCallbackList                0x200056dc   Data          48  psdk_msg_subcribe.o(.bss)
    .bss                                     0x2000570c   Section      144  psdk_payload_camera.o(.bss)
    s_cameraHandler                          0x2000570c   Data         144  psdk_payload_camera.o(.bss)
    .bss                                     0x2000579c   Section       32  psdk_payload_gimbal.o(.bss)
    s_gimbalHandler                          0x2000579c   Data          32  psdk_payload_gimbal.o(.bss)
    .bss                                     0x200057bc   Section       64  queue.o(.bss)
    .bss                                     0x200057fc   Section      240  tasks.o(.bss)
    pxReadyTasksLists                        0x200057fc   Data         140  tasks.o(.bss)
    xDelayedTaskList1                        0x20005888   Data          20  tasks.o(.bss)
    xDelayedTaskList2                        0x2000589c   Data          20  tasks.o(.bss)
    xPendingReadyList                        0x200058b0   Data          20  tasks.o(.bss)
    xTasksWaitingTermination                 0x200058c4   Data          20  tasks.o(.bss)
    xSuspendedTaskList                       0x200058d8   Data          20  tasks.o(.bss)
    .bss                                     0x200058ec   Section    38912  heap_4.o(.bss)
    ucHeap                                   0x200058ec   Data       38912  heap_4.o(.bss)
    STACK                                    0x2000f0f0   Section     1024  startup_stm32f10x_hd.o(STACK)

    Global Symbols

    Symbol Name                              Value     Ov Type        Size  Object(Section)

    BuildAttributes$$THM_ISAv4$P$D$K$B$S$PE$A:L22UL41UL21$X:L11$S22US41US21$IEEE1$IW$USESV6$~STKCKD$USESV7$~SHL$OTIME$ROPI$EBA8$MICROLIB$REQ8$PRES8$EABIv2 0x00000000   Number         0  anon$$obj.o ABSOLUTE
    __ARM_use_no_argv                        0x00000000   Number         0  main.o ABSOLUTE
    _printf_a                                0x00000000   Number         0  stubs.o ABSOLUTE
    _printf_c                                0x00000000   Number         0  stubs.o ABSOLUTE
    _printf_charcount                        0x00000000   Number         0  stubs.o ABSOLUTE
    _printf_d                                0x00000000   Number         0  stubs.o ABSOLUTE
    _printf_e                                0x00000000   Number         0  stubs.o ABSOLUTE
    _printf_f                                0x00000000   Number         0  stubs.o ABSOLUTE
    _printf_flags                            0x00000000   Number         0  stubs.o ABSOLUTE
    _printf_fp_dec                           0x00000000   Number         0  stubs.o ABSOLUTE
    _printf_fp_hex                           0x00000000   Number         0  stubs.o ABSOLUTE
    _printf_g                                0x00000000   Number         0  stubs.o ABSOLUTE
    _printf_i                                0x00000000   Number         0  stubs.o ABSOLUTE
    _printf_int_dec                          0x00000000   Number         0  stubs.o ABSOLUTE
    _printf_l                                0x00000000   Number         0  stubs.o ABSOLUTE
    _printf_lc                               0x00000000   Number         0  stubs.o ABSOLUTE
    _printf_ll                               0x00000000   Number         0  stubs.o ABSOLUTE
    _printf_lld                              0x00000000   Number         0  stubs.o ABSOLUTE
    _printf_lli                              0x00000000   Number         0  stubs.o ABSOLUTE
    _printf_llo                              0x00000000   Number         0  stubs.o ABSOLUTE
    _printf_llu                              0x00000000   Number         0  stubs.o ABSOLUTE
    _printf_llx                              0x00000000   Number         0  stubs.o ABSOLUTE
    _printf_longlong_dec                     0x00000000   Number         0  stubs.o ABSOLUTE
    _printf_longlong_hex                     0x00000000   Number         0  stubs.o ABSOLUTE
    _printf_longlong_oct                     0x00000000   Number         0  stubs.o ABSOLUTE
    _printf_ls                               0x00000000   Number         0  stubs.o ABSOLUTE
    _printf_mbtowc                           0x00000000   Number         0  stubs.o ABSOLUTE
    _printf_n                                0x00000000   Number         0  stubs.o ABSOLUTE
    _printf_o                                0x00000000   Number         0  stubs.o ABSOLUTE
    _printf_p                                0x00000000   Number         0  stubs.o ABSOLUTE
    _printf_percent                          0x00000000   Number         0  stubs.o ABSOLUTE
    _printf_pre_padding                      0x00000000   Number         0  stubs.o ABSOLUTE
    _printf_return_value                     0x00000000   Number         0  stubs.o ABSOLUTE
    _printf_s                                0x00000000   Number         0  stubs.o ABSOLUTE
    _printf_sizespec                         0x00000000   Number         0  stubs.o ABSOLUTE
    _printf_str                              0x00000000   Number         0  stubs.o ABSOLUTE
    _printf_truncate_signed                  0x00000000   Number         0  stubs.o ABSOLUTE
    _printf_truncate_unsigned                0x00000000   Number         0  stubs.o ABSOLUTE
    _printf_u                                0x00000000   Number         0  stubs.o ABSOLUTE
    _printf_wc                               0x00000000   Number         0  stubs.o ABSOLUTE
    _printf_wctomb                           0x00000000   Number         0  stubs.o ABSOLUTE
    _printf_widthprec                        0x00000000   Number         0  stubs.o ABSOLUTE
    _printf_x                                0x00000000   Number         0  stubs.o ABSOLUTE
    __cpp_initialize__aeabi_                  - Undefined Weak Reference
    __cxa_finalize                            - Undefined Weak Reference
    _clock_init                               - Undefined Weak Reference
    _microlib_exit                            - Undefined Weak Reference
    __Vectors_Size                           0x00000130   Number         0  startup_stm32f10x_hd.o ABSOLUTE
    __Vectors                                0x08035000   Data           4  startup_stm32f10x_hd.o(RESET)
    __Vectors_End                            0x08035130   Data           0  startup_stm32f10x_hd.o(RESET)
    __main                                   0x08035131   Thumb Code     0  entry.o(.ARM.Collect$$$$00000000)
    _main_stk                                0x08035131   Thumb Code     0  entry2.o(.ARM.Collect$$$$00000001)
    _main_scatterload                        0x08035135   Thumb Code     0  entry5.o(.ARM.Collect$$$$00000004)
    __main_after_scatterload                 0x08035139   Thumb Code     0  entry5.o(.ARM.Collect$$$$00000004)
    _main_clock                              0x08035139   Thumb Code     0  entry7b.o(.ARM.Collect$$$$00000008)
    _main_cpp_init                           0x08035139   Thumb Code     0  entry8b.o(.ARM.Collect$$$$0000000A)
    _main_init                               0x08035139   Thumb Code     0  entry9a.o(.ARM.Collect$$$$0000000B)
    __rt_final_cpp                           0x08035141   Thumb Code     0  entry10a.o(.ARM.Collect$$$$0000000D)
    __rt_final_exit                          0x08035141   Thumb Code     0  entry11a.o(.ARM.Collect$$$$0000000F)
    SVC_Handler                              0x08035145   Thumb Code    32  port.o(.emb_text)
    __asm___6_port_c_39a90d8d__prvStartFirstTask 0x08035169   Thumb Code    28  port.o(.emb_text)
    PendSV_Handler                           0x08035189   Thumb Code    72  port.o(.emb_text)
    vPortGetIPSR                             0x080351d5   Thumb Code     6  port.o(.emb_text)
    Reset_Handler                            0x080351dd   Thumb Code     8  startup_stm32f10x_hd.o(.text)
    ADC1_2_IRQHandler                        0x080351f7   Thumb Code     0  startup_stm32f10x_hd.o(.text)
    ADC3_IRQHandler                          0x080351f7   Thumb Code     0  startup_stm32f10x_hd.o(.text)
    CAN1_RX1_IRQHandler                      0x080351f7   Thumb Code     0  startup_stm32f10x_hd.o(.text)
    CAN1_SCE_IRQHandler                      0x080351f7   Thumb Code     0  startup_stm32f10x_hd.o(.text)
    DMA1_Channel1_IRQHandler                 0x080351f7   Thumb Code     0  startup_stm32f10x_hd.o(.text)
    DMA1_Channel2_IRQHandler                 0x080351f7   Thumb Code     0  startup_stm32f10x_hd.o(.text)
    DMA1_Channel3_IRQHandler                 0x080351f7   Thumb Code     0  startup_stm32f10x_hd.o(.text)
    DMA1_Channel4_IRQHandler                 0x080351f7   Thumb Code     0  startup_stm32f10x_hd.o(.text)
    DMA1_Channel5_IRQHandler                 0x080351f7   Thumb Code     0  startup_stm32f10x_hd.o(.text)
    DMA1_Channel6_IRQHandler                 0x080351f7   Thumb Code     0  startup_stm32f10x_hd.o(.text)
    DMA1_Channel7_IRQHandler                 0x080351f7   Thumb Code     0  startup_stm32f10x_hd.o(.text)
    DMA2_Channel1_IRQHandler                 0x080351f7   Thumb Code     0  startup_stm32f10x_hd.o(.text)
    DMA2_Channel2_IRQHandler                 0x080351f7   Thumb Code     0  startup_stm32f10x_hd.o(.text)
    DMA2_Channel3_IRQHandler                 0x080351f7   Thumb Code     0  startup_stm32f10x_hd.o(.text)
    DMA2_Channel4_5_IRQHandler               0x080351f7   Thumb Code     0  startup_stm32f10x_hd.o(.text)
    EXTI0_IRQHandler                         0x080351f7   Thumb Code     0  startup_stm32f10x_hd.o(.text)
    EXTI15_10_IRQHandler                     0x080351f7   Thumb Code     0  startup_stm32f10x_hd.o(.text)
    EXTI2_IRQHandler                         0x080351f7   Thumb Code     0  startup_stm32f10x_hd.o(.text)
    EXTI4_IRQHandler                         0x080351f7   Thumb Code     0  startup_stm32f10x_hd.o(.text)
    EXTI9_5_IRQHandler                       0x080351f7   Thumb Code     0  startup_stm32f10x_hd.o(.text)
    FLASH_IRQHandler                         0x080351f7   Thumb Code     0  startup_stm32f10x_hd.o(.text)
    FSMC_IRQHandler                          0x080351f7   Thumb Code     0  startup_stm32f10x_hd.o(.text)
    I2C1_ER_IRQHandler                       0x080351f7   Thumb Code     0  startup_stm32f10x_hd.o(.text)
    I2C1_EV_IRQHandler                       0x080351f7   Thumb Code     0  startup_stm32f10x_hd.o(.text)
    I2C2_ER_IRQHandler                       0x080351f7   Thumb Code     0  startup_stm32f10x_hd.o(.text)
    I2C2_EV_IRQHandler                       0x080351f7   Thumb Code     0  startup_stm32f10x_hd.o(.text)
    PVD_IRQHandler                           0x080351f7   Thumb Code     0  startup_stm32f10x_hd.o(.text)
    RCC_IRQHandler                           0x080351f7   Thumb Code     0  startup_stm32f10x_hd.o(.text)
    RTCAlarm_IRQHandler                      0x080351f7   Thumb Code     0  startup_stm32f10x_hd.o(.text)
    RTC_IRQHandler                           0x080351f7   Thumb Code     0  startup_stm32f10x_hd.o(.text)
    SPI1_IRQHandler                          0x080351f7   Thumb Code     0  startup_stm32f10x_hd.o(.text)
    SPI2_IRQHandler                          0x080351f7   Thumb Code     0  startup_stm32f10x_hd.o(.text)
    SPI3_IRQHandler                          0x080351f7   Thumb Code     0  startup_stm32f10x_hd.o(.text)
    TAMPER_IRQHandler                        0x080351f7   Thumb Code     0  startup_stm32f10x_hd.o(.text)
    TIM1_BRK_IRQHandler                      0x080351f7   Thumb Code     0  startup_stm32f10x_hd.o(.text)
    TIM1_CC_IRQHandler                       0x080351f7   Thumb Code     0  startup_stm32f10x_hd.o(.text)
    TIM1_TRG_COM_IRQHandler                  0x080351f7   Thumb Code     0  startup_stm32f10x_hd.o(.text)
    TIM1_UP_IRQHandler                       0x080351f7   Thumb Code     0  startup_stm32f10x_hd.o(.text)
    TIM2_IRQHandler                          0x080351f7   Thumb Code     0  startup_stm32f10x_hd.o(.text)
    TIM3_IRQHandler                          0x080351f7   Thumb Code     0  startup_stm32f10x_hd.o(.text)
    TIM4_IRQHandler                          0x080351f7   Thumb Code     0  startup_stm32f10x_hd.o(.text)
    TIM5_IRQHandler                          0x080351f7   Thumb Code     0  startup_stm32f10x_hd.o(.text)
    TIM6_IRQHandler                          0x080351f7   Thumb Code     0  startup_stm32f10x_hd.o(.text)
    TIM7_IRQHandler                          0x080351f7   Thumb Code     0  startup_stm32f10x_hd.o(.text)
    TIM8_BRK_IRQHandler                      0x080351f7   Thumb Code     0  startup_stm32f10x_hd.o(.text)
    TIM8_CC_IRQHandler                       0x080351f7   Thumb Code     0  startup_stm32f10x_hd.o(.text)
    TIM8_TRG_COM_IRQHandler                  0x080351f7   Thumb Code     0  startup_stm32f10x_hd.o(.text)
    TIM8_UP_IRQHandler                       0x080351f7   Thumb Code     0  startup_stm32f10x_hd.o(.text)
    UART4_IRQHandler                         0x080351f7   Thumb Code     0  startup_stm32f10x_hd.o(.text)
    UART5_IRQHandler                         0x080351f7   Thumb Code     0  startup_stm32f10x_hd.o(.text)
    USBWakeUp_IRQHandler                     0x080351f7   Thumb Code     0  startup_stm32f10x_hd.o(.text)
    USB_HP_CAN1_TX_IRQHandler                0x080351f7   Thumb Code     0  startup_stm32f10x_hd.o(.text)
    USB_LP_CAN1_RX0_IRQHandler               0x080351f7   Thumb Code     0  startup_stm32f10x_hd.o(.text)
    WWDG_IRQHandler                          0x080351f7   Thumb Code     0  startup_stm32f10x_hd.o(.text)
    Psdk_Write                               0x0803528f   Thumb Code    16  application.o(.text)
    Psdk_Read                                0x0803529f   Thumb Code    10  application.o(.text)
    PsdkTestTask                             0x080352a9   Thumb Code   314  application.o(.text)
    ProcessPsdkRecTask                       0x080353e3   Thumb Code    62  application.o(.text)
    application_init                         0x08035421   Thumb Code   194  application.o(.text)
    vApplicationStackOverflowHook            0x080354e3   Thumb Code    14  application.o(.text)
    UTC_to_BJtime                            0x080354f1   Thumb Code   588  application.o(.text)
    PPS_TASK                                 0x0803573d   Thumb Code   552  application.o(.text)
    vApplicationTickHook                     0x08035965   Thumb Code    10  application.o(.text)
    main                                     0x080359ed   Thumb Code    36  main.o(.text)
    APP_TASKCREATE                           0x08035a11   Thumb Code   196  main.o(.text)
    NMI_Handler                              0x08035ae5   Thumb Code     2  stm32f10x_it.o(.text)
    HardFault_Handler                        0x08035ae7   Thumb Code     2  stm32f10x_it.o(.text)
    MemManage_Handler                        0x08035ae9   Thumb Code     2  stm32f10x_it.o(.text)
    BusFault_Handler                         0x08035aeb   Thumb Code     2  stm32f10x_it.o(.text)
    UsageFault_Handler                       0x08035aed   Thumb Code     2  stm32f10x_it.o(.text)
    DebugMon_Handler                         0x08035aef   Thumb Code     2  stm32f10x_it.o(.text)
    SysTick_Handler                          0x08035af1   Thumb Code    20  stm32f10x_it.o(.text)
    Test_ReceiveFromMobileSDKFunc            0x08035b05   Thumb Code    36  test_app_func.o(.text)
    Test_GetWidgetValueFunc                  0x08035b29   Thumb Code    96  test_app_func.o(.text)
    Test_SetWidgetValueFunc                  0x08035b89   Thumb Code   472  test_app_func.o(.text)
    Test_GetTextInputBoxParamFunc            0x08035d61   Thumb Code    40  test_app_func.o(.text)
    CamEmu_SetCameraMode                     0x08036049   Thumb Code    46  test_payload_cam_emu.o(.text)
    CamEmu_GetCameraMode                     0x08036077   Thumb Code    12  test_payload_cam_emu.o(.text)
    CamEmu_Photography                       0x08036083   Thumb Code   104  test_payload_cam_emu.o(.text)
    CamEmu_GetPhotographyState               0x080360eb   Thumb Code   242  test_payload_cam_emu.o(.text)
    CamEmu_SetPhotographyMode                0x080361dd   Thumb Code    44  test_payload_cam_emu.o(.text)
    CamEmu_GetPhotographyMode                0x08036209   Thumb Code    24  test_payload_cam_emu.o(.text)
    CamEmu_SetRecording                      0x08036221   Thumb Code    64  test_payload_cam_emu.o(.text)
    CamEmu_GetRecordingState                 0x08036261   Thumb Code    48  test_payload_cam_emu.o(.text)
    CamEmu_GetSdcardParam                    0x08036291   Thumb Code   132  test_payload_cam_emu.o(.text)
    CamEmu_FormatSdcard                      0x08036315   Thumb Code    44  test_payload_cam_emu.o(.text)
    CamEmu_SetMeteringMode                   0x08036341   Thumb Code    30  test_payload_cam_emu.o(.text)
    CamEmu_GetMeteringMode                   0x0803635f   Thumb Code    12  test_payload_cam_emu.o(.text)
    CamEmu_SetSpotMetering                   0x0803636b   Thumb Code    38  test_payload_cam_emu.o(.text)
    CamEmu_GetSpotMetering                   0x08036391   Thumb Code    24  test_payload_cam_emu.o(.text)
    CamEmu_SetFocusMode                      0x080363a9   Thumb Code    30  test_payload_cam_emu.o(.text)
    CamEmu_GetFocusMode                      0x080363c7   Thumb Code    12  test_payload_cam_emu.o(.text)
    CamEmu_SetFocusZone                      0x080363d3   Thumb Code    34  test_payload_cam_emu.o(.text)
    CamEmu_GetFocusZone                      0x080363f5   Thumb Code   372  test_payload_cam_emu.o(.text)
    CamEmu_SetFocusAssistantSettings         0x08036569   Thumb Code    38  test_payload_cam_emu.o(.text)
    CamEmu_GetFocusAssistantSettings         0x0803658f   Thumb Code    24  test_payload_cam_emu.o(.text)
    CamEmu_GetFocusRingValueUpperBound       0x080365a7   Thumb Code    14  test_payload_cam_emu.o(.text)
    CamEmu_SetFocusRingValue                 0x080365b5   Thumb Code    30  test_payload_cam_emu.o(.text)
    CamEmu_GetFocusRingValue                 0x080365d3   Thumb Code    14  test_payload_cam_emu.o(.text)
    CamEmu_GetDigitalZoomSpec                0x080365e1   Thumb Code    12  test_payload_cam_emu.o(.text)
    CamEmu_SetDigitalZoomFactor              0x080365ed   Thumb Code    30  test_payload_cam_emu.o(.text)
    CamEmu_GetDigitalZoomFactor              0x0803660b   Thumb Code    14  test_payload_cam_emu.o(.text)
    CamEmu_GetOpticalZoomSpec                0x08036619   Thumb Code    24  test_payload_cam_emu.o(.text)
    CamEmu_SetOpticalZoomFocalLength         0x08036631   Thumb Code    30  test_payload_cam_emu.o(.text)
    CamEmu_GetOpticalZoomFocalLength         0x0803664f   Thumb Code    72  test_payload_cam_emu.o(.text)
    CamEmu_GetOpticalZoomFactor              0x08036697   Thumb Code    48  test_payload_cam_emu.o(.text)
    CamEmu_StartContinuousOpticalZoom        0x080366c7   Thumb Code    38  test_payload_cam_emu.o(.text)
    CamEmu_StopContinuousOpticalZoom         0x080366ed   Thumb Code    26  test_payload_cam_emu.o(.text)
    GimbalEmu_GetGimbalParam                 0x0803682d   Thumb Code   268  test_payload_gimbal_emu.o(.text)
    GimbalEmu_SetGimbalMode                  0x08036939   Thumb Code    28  test_payload_gimbal_emu.o(.text)
    GimbalEmu_ReturnHead                     0x08036955   Thumb Code    30  test_payload_gimbal_emu.o(.text)
    GimbalEmu_ControlSpeed                   0x08036973   Thumb Code    38  test_payload_gimbal_emu.o(.text)
    GimbalEmu_ControlAngle                   0x08036999   Thumb Code    74  test_payload_gimbal_emu.o(.text)
    GimbalEmu_ControlJointAngle              0x080369e3   Thumb Code    38  test_payload_gimbal_emu.o(.text)
    GimbalEmu_StartCalibration               0x08036a09   Thumb Code    22  test_payload_gimbal_emu.o(.text)
    GimbalEmu_GetCalibrationProgress         0x08036a1f   Thumb Code    28  test_payload_gimbal_emu.o(.text)
    Test_VerifyUtcTimestamp                  0x08036c9d   Thumb Code    34  test_positioning.o(.text)
    Test_SyncTime                            0x08036cbf   Thumb Code    30  test_positioning.o(.text)
    Test_RequestPosition                     0x08036cdd   Thumb Code   420  test_positioning.o(.text)
    Sys_Init                                 0x08036ed9   Thumb Code     2  sys.o(.text)
    cocoguojia_exitInterruptDisable          0x08036edd   Thumb Code    20  pps.o(.text)
    cocoguojia_exitInterruptEnable           0x08036ef1   Thumb Code    20  pps.o(.text)
    PPS_Init                                 0x08036f05   Thumb Code    96  pps.o(.text)
    PPS_isTriggered                          0x08036f65   Thumb Code    20  pps.o(.text)
    PPS_GetNewestTriggerTime                 0x08036f79   Thumb Code     6  pps.o(.text)
    EXTI3_IRQHandler                         0x08036f7f   Thumb Code    64  pps.o(.text)
    HotShoe_Init                             0x08036fcd   Thumb Code   120  hotshoe.o(.text)
    HotShoe_isTriggered                      0x08037045   Thumb Code    22  hotshoe.o(.text)
    EXTI1_IRQHandler                         0x0803705b   Thumb Code    32  hotshoe.o(.text)
    BSP_Init                                 0x08037085   Thumb Code   236  bsp.o(.text)
    CAM_TASK                                 0x08037189   Thumb Code  1418  cam_task.o(.text)
    KEY_TASK                                 0x08037715   Thumb Code   244  key_task.o(.text)
    OLED_TASK                                0x08037845   Thumb Code   322  oled_task.o(.text)
    RGB_TASK                                 0x080379c1   Thumb Code   372  rgb_task.o(.text)
    RUNINIT_TASK                             0x08037f6b   Thumb Code   190  runinit_task.o(.text)
    TRIGGER_TASK                             0x0803805d   Thumb Code   704  trigger_task.o(.text)
    U2RECE_TASK                              0x08038385   Thumb Code   300  u2rece_task.o(.text)
    U2SEND_TASK                              0x0803861f   Thumb Code   104  u2send_task.o(.text)
    FAN_TASK                                 0x08038711   Thumb Code   126  fan_task.o(.text)
    i2c_Start                                0x080387dd   Thumb Code    34  cocoguojia_24c02.o(.text)
    i2c_Stop                                 0x080387ff   Thumb Code    24  cocoguojia_24c02.o(.text)
    i2c_SendByte                             0x08038817   Thumb Code    80  cocoguojia_24c02.o(.text)
    i2c_ReadByte                             0x08038867   Thumb Code    66  cocoguojia_24c02.o(.text)
    i2c_WaitAck                              0x080388a9   Thumb Code    50  cocoguojia_24c02.o(.text)
    i2c_Ack                                  0x080388db   Thumb Code    38  cocoguojia_24c02.o(.text)
    i2c_NAck                                 0x08038901   Thumb Code    30  cocoguojia_24c02.o(.text)
    i2c_CheckDevice                          0x0803894b   Thumb Code    32  cocoguojia_24c02.o(.text)
    cocoguojia_eeCheckOk                     0x0803896b   Thumb Code    22  cocoguojia_24c02.o(.text)
    cocoguojia_eeReadBytes                   0x08038981   Thumb Code   104  cocoguojia_24c02.o(.text)
    cocoguojia_eeWriteBytes                  0x080389e9   Thumb Code   112  cocoguojia_24c02.o(.text)
    cocoguojia_eeErase                       0x08038a59   Thumb Code    36  cocoguojia_24c02.o(.text)
    cocoguojia_readSetParameter              0x08038a7d   Thumb Code    56  cocoguojia_24c02.o(.text)
    cocoguojia_writeSetParameter             0x08038ab5   Thumb Code    34  cocoguojia_24c02.o(.text)
    cocoguojia_ds18b20Init                   0x08038cff   Thumb Code    60  cocoguojia_ds18b20.o(.text)
    cocoguojia_ds18b20GetTemp                0x08038e27   Thumb Code   108  cocoguojia_ds18b20.o(.text)
    cocoguojia_libInit                       0x08038ea5   Thumb Code    56  cocoguojia_init.o(.text)
    cocoguojia_systemSoftReset               0x08038edd   Thumb Code     8  cocoguojia_init.o(.text)
    OLED_WR_Byte                             0x08038eed   Thumb Code   118  cocoguojia_oled.o(.text)
    OLED_Set_Pos                             0x08038f63   Thumb Code    42  cocoguojia_oled.o(.text)
    OLED_Display_On                          0x08038f8d   Thumb Code    28  cocoguojia_oled.o(.text)
    OLED_Display_Off                         0x08038fa9   Thumb Code    28  cocoguojia_oled.o(.text)
    OLED_Clear                               0x08038fc5   Thumb Code    60  cocoguojia_oled.o(.text)
    OLED_ShowChar                            0x08039001   Thumb Code    94  cocoguojia_oled.o(.text)
    oled_pow                                 0x080390c3   Thumb Code    16  cocoguojia_oled.o(.text)
    OLED_ShowNum                             0x080390d3   Thumb Code   104  cocoguojia_oled.o(.text)
    OLED_ShowString                          0x0803913b   Thumb Code    48  cocoguojia_oled.o(.text)
    OLED_ShowStringFanBai                    0x0803916b   Thumb Code    48  cocoguojia_oled.o(.text)
    OLED_ShowCHinese                         0x0803919b   Thumb Code    86  cocoguojia_oled.o(.text)
    OLED_ShowCHinese2                        0x080391f1   Thumb Code    86  cocoguojia_oled.o(.text)
    OLED_ShowCHinese2FanBai                  0x08039247   Thumb Code    94  cocoguojia_oled.o(.text)
    OLED_DrawBMP                             0x080392a5   Thumb Code    84  cocoguojia_oled.o(.text)
    cocoguojia_oledInit                      0x08039303   Thumb Code   342  cocoguojia_oled.o(.text)
    cocoguojia_oledShowShareuavLogoAndID     0x08039459   Thumb Code   112  cocoguojia_oled.o(.text)
    cocoguojia_oledShowSystemInit            0x080394c9   Thumb Code   122  cocoguojia_oled.o(.text)
    cocoguojia_oledShowShuting               0x08039543   Thumb Code   186  cocoguojia_oled.o(.text)
    cocoguojia_oledShowOpening               0x080395fd   Thumb Code   186  cocoguojia_oled.o(.text)
    cocoguojia_oledRunShowFor1               0x080396b7   Thumb Code   558  cocoguojia_oled.o(.text)
    cocoguojia_oledRunShowFor2               0x080398e5   Thumb Code   220  cocoguojia_oled.o(.text)
    cocoguojia_oledShowShutWrong             0x080399c1   Thumb Code   128  cocoguojia_oled.o(.text)
    cocoguojia_oledShowOpenWrong             0x08039a41   Thumb Code   126  cocoguojia_oled.o(.text)
    cocoguojia_oledShowLoseWrong             0x08039abf   Thumb Code   136  cocoguojia_oled.o(.text)
    cocoguojia_oledShowSetModel1             0x08039b47   Thumb Code   528  cocoguojia_oled.o(.text)
    cocoguojia_oledShowSetModel2             0x08039d57   Thumb Code   142  cocoguojia_oled.o(.text)
    cocoguojia_oledShowRepairModel           0x08039de5   Thumb Code   710  cocoguojia_oled.o(.text)
    cocoguojia_rgbledInit                    0x0803a10d   Thumb Code    62  cocoguojia_rgbled.o(.text)
    cocoguojia_tim1Init                      0x0803a155   Thumb Code   144  cocoguojia_tim1pwm.o(.text)
    cocoguojia_tim1Enable                    0x0803a1e5   Thumb Code    24  cocoguojia_tim1pwm.o(.text)
    cocoguojia_tim1Disable                   0x0803a1fd   Thumb Code    24  cocoguojia_tim1pwm.o(.text)
    UART_Init                                0x0803a21d   Thumb Code   582  cocoguojia_usart.o(.text)
    UART_Read                                0x0803a463   Thumb Code   114  cocoguojia_usart.o(.text)
    UART_Write                               0x0803a4d5   Thumb Code   152  cocoguojia_usart.o(.text)
    cocoguojia_usartSendChar                 0x0803a56d   Thumb Code    12  cocoguojia_usart.o(.text)
    cocoguojia_usartSendStr                  0x0803a579   Thumb Code    26  cocoguojia_usart.o(.text)
    cocoguojia_usartReadDataForlen           0x0803a593   Thumb Code     2  cocoguojia_usart.o(.text)
    LOG_Init                                 0x0803a595   Thumb Code    20  cocoguojia_usart.o(.text)
    UART_Printf                              0x0803a5a9   Thumb Code    54  cocoguojia_usart.o(.text)
    USART1_IRQHandler                        0x0803a5df   Thumb Code   164  cocoguojia_usart.o(.text)
    USART2_IRQHandler                        0x0803a683   Thumb Code   112  cocoguojia_usart.o(.text)
    USART3_IRQHandler                        0x0803a6f3   Thumb Code   112  cocoguojia_usart.o(.text)
    RingBuf_Init                             0x0803a78f   Thumb Code    32  cocoguojia_usart_ringbuffer.o(.text)
    RingBuf_Put                              0x0803a7af   Thumb Code    74  cocoguojia_usart_ringbuffer.o(.text)
    RingBuf_Get                              0x0803a7f9   Thumb Code    70  cocoguojia_usart_ringbuffer.o(.text)
    RingBuf_GetUnusedSize                    0x0803a83f   Thumb Code    14  cocoguojia_usart_ringbuffer.o(.text)
    cocoguojia_SdioFlash_ms                  0x0803a84d   Thumb Code    28  cocoguojia_sdcard.o(.text)
    cocoguojia_CancleWorkspace               0x0803a869   Thumb Code    10  cocoguojia_sdcard.o(.text)
    cocoguojia_WriteFileSystem               0x0803a873   Thumb Code   266  cocoguojia_sdcard.o(.text)
    cocoguojia_RegisteredWorkspace           0x0803a97d   Thumb Code    96  cocoguojia_sdcard.o(.text)
    cocoguojia_sdWrireGpsRtk                 0x0803a9dd   Thumb Code   278  cocoguojia_sdcard.o(.text)
    SdioDelayInit                            0x0803ab19   Thumb Code    36  cocoguojia_sdio.o(.text)
    cocoguojia_sdDeInit                      0x0803ab3d   Thumb Code    68  cocoguojia_sdio.o(.text)
    SD_EnableWideBusOperation                0x0803aef1   Thumb Code   172  cocoguojia_sdio.o(.text)
    SD_SelectDeselect                        0x0803af9d   Thumb Code    40  cocoguojia_sdio.o(.text)
    SD_GetCardInfo                           0x0803afc5   Thumb Code   612  cocoguojia_sdio.o(.text)
    SD_InitializeCards                       0x0803b2e1   Thumb Code   284  cocoguojia_sdio.o(.text)
    SD_PowerON                               0x0803b493   Thumb Code   356  cocoguojia_sdio.o(.text)
    SD_Init                                  0x0803b5f7   Thumb Code    94  cocoguojia_sdio.o(.text)
    SD_SendStatus                            0x0803b655   Thumb Code    36  cocoguojia_sdio.o(.text)
    SD_GetState                              0x0803b679   Thumb Code    26  cocoguojia_sdio.o(.text)
    SD_GetStatus                             0x0803b693   Thumb Code    26  cocoguojia_sdio.o(.text)
    SD_PowerOFF                              0x0803b6ad   Thumb Code    14  cocoguojia_sdio.o(.text)
    SD_SendSDStatus                          0x0803b6bb   Thumb Code   334  cocoguojia_sdio.o(.text)
    SD_GetCardStatus                         0x0803b809   Thumb Code   128  cocoguojia_sdio.o(.text)
    SD_ReadBlock                             0x0803b889   Thumb Code   174  cocoguojia_sdio.o(.text)
    SD_ReadMultiBlocks                       0x0803b937   Thumb Code   188  cocoguojia_sdio.o(.text)
    SD_WaitReadOperation                     0x0803b9f3   Thumb Code    34  cocoguojia_sdio.o(.text)
    SD_WriteBlock                            0x0803ba15   Thumb Code   170  cocoguojia_sdio.o(.text)
    SD_WriteMultiBlocks                      0x0803babf   Thumb Code   278  cocoguojia_sdio.o(.text)
    SD_WaitWriteOperation                    0x0803bbd5   Thumb Code    56  cocoguojia_sdio.o(.text)
    SD_GetTransferState                      0x0803bc0d   Thumb Code    18  cocoguojia_sdio.o(.text)
    SD_StopTransfer                          0x0803bc1f   Thumb Code    18  cocoguojia_sdio.o(.text)
    SD_Erase                                 0x0803bd89   Thumb Code   238  cocoguojia_sdio.o(.text)
    SD_ProcessIRQSrc                         0x0803be77   Thumb Code    60  cocoguojia_sdio.o(.text)
    convert_from_bytes_to_power_of_two       0x0803beb3   Thumb Code    18  cocoguojia_sdio.o(.text)
    SDIO_IRQHandler                          0x0803bec5   Thumb Code     2  cocoguojia_sdio.o(.text)
    PsdkUpper_Init                           0x0803c145   Thumb Code    92  psdk_upper.o(.text)
    PsdkUpper_SetFixVersion                  0x0803c1a1   Thumb Code    10  psdk_upper.o(.text)
    PsdkUpper_SetProductAlias                0x0803c1ab   Thumb Code    18  psdk_upper.o(.text)
    PsdkUpper_ProcessReceiveData             0x0803c1bd   Thumb Code     4  psdk_upper.o(.text)
    PsdkUpper_RegSendFunction                0x0803c1c1   Thumb Code     4  psdk_upper.o(.text)
    PsdkUpper_RegReceiveFunction             0x0803c1c5   Thumb Code     4  psdk_upper.o(.text)
    PsdkAppFunc_Init                         0x0803c4e5   Thumb Code    46  psdk_app_func.o(.text)
    PsdkAppFunc_TransferToApp                0x0803c513   Thumb Code   148  psdk_app_func.o(.text)
    PsdkAppFunc_PushMsgToFloatingWindow      0x0803c5a7   Thumb Code   108  psdk_app_func.o(.text)
    PsdkAppFunc_SetWidgetList                0x0803c613   Thumb Code    10  psdk_app_func.o(.text)
    PsdkAppFunc_SetReceiveFromAppCallback    0x0803c61d   Thumb Code     8  psdk_app_func.o(.text)
    PsdkAppFunc_RegGetWidgetValueCallback    0x0803c625   Thumb Code     8  psdk_app_func.o(.text)
    PsdkAppFunc_RegSetWidgetValueCallback    0x0803c62d   Thumb Code     8  psdk_app_func.o(.text)
    PsdkAppFunc_RegGetTextInputBoxParamCallback 0x0803c635   Thumb Code     8  psdk_app_func.o(.text)
    PsdkMsgSub_Init                          0x0803c72b   Thumb Code    38  psdk_msg_subcribe.o(.text)
    PsdkMsgSub_RegMsgCallbackList            0x0803c751   Thumb Code    14  psdk_msg_subcribe.o(.text)
    PsdkCamera_Init                          0x0803cce3   Thumb Code    44  psdk_payload_camera.o(.text)
    PsdkGimbal_Init                          0x0803ce85   Thumb Code    44  psdk_payload_gimbal.o(.text)
    PsdkOsdkFunc_Init                        0x0803ced1   Thumb Code    32  psdk_osdk_func.o(.text)
    PsdkOsdkFunc_TransferToOsdk              0x0803cef1   Thumb Code   154  psdk_osdk_func.o(.text)
    PsdkPositioning_GetPos                   0x0803cf95   Thumb Code   108  psdk_positioning.o(.text)
    PsdkAes_SetupDecrypt                     0x0803da79   Thumb Code   628  psdk_aes.o(.text)
    PsdkAes_Encrypt                          0x0803dced   Thumb Code    92  psdk_aes.o(.text)
    PsdkAes_Decrypt                          0x0803dd49   Thumb Code    90  psdk_aes.o(.text)
    PsdkCrc_Crc8                             0x0803ddc9   Thumb Code    48  psdk_crc.o(.text)
    PsdkCrc_Crc16                            0x0803ddf9   Thumb Code    60  psdk_crc.o(.text)
    PsdkCrc_Crc32                            0x0803de35   Thumb Code    60  psdk_crc.o(.text)
    md5_transform                            0x0803dea1   Thumb Code  1846  psdk_md5.o(.text)
    md5_init                                 0x0803e5d7   Thumb Code    32  psdk_md5.o(.text)
    md5_update                               0x0803e5f7   Thumb Code    72  psdk_md5.o(.text)
    md5_final                                0x0803e63f   Thumb Code   176  psdk_md5.o(.text)
    PsdkProto_Send                           0x0803e8d9   Thumb Code    88  psdk_proto.o(.text)
    PsdkProto_SendAckData                    0x0803e931   Thumb Code    50  psdk_proto.o(.text)
    PsdkProto_DealCmd                        0x0803e963   Thumb Code   186  psdk_proto.o(.text)
    PsdkProto_Init                           0x0803ea9f   Thumb Code   164  psdk_proto.o(.text)
    PsdkProto_DeInit                         0x0803eb43   Thumb Code    42  psdk_proto.o(.text)
    PsdkProto_ProcessReceiveData             0x0803eb6d   Thumb Code   118  psdk_proto.o(.text)
    PsdkProto_RegSendDataFunc                0x0803ebe3   Thumb Code    16  psdk_proto.o(.text)
    PsdkProto_RegReceiveDataFunc             0x0803ebf3   Thumb Code    16  psdk_proto.o(.text)
    PsdkProt_GetCurrentSendSeq               0x0803ec03   Thumb Code    50  psdk_proto.o(.text)
    PsdkProto_RegCmdSetHandler               0x0803ec35   Thumb Code   110  psdk_proto.o(.text)
    PsdkProto_SendGetAck                     0x0803eca3   Thumb Code   138  psdk_proto.o(.text)
    PsdkDebug_AssertFailed                   0x0803ee4d   Thumb Code    18  psdk_debug.o(.text)
    PsdkProtParse_Init                       0x0803eea1   Thumb Code     8  psdk_proto_parse.o(.text)
    PsdkProtParse_AddByte                    0x0803eea9   Thumb Code   188  psdk_proto_parse.o(.text)
    PsdkSys_MutexNew                         0x0803ef65   Thumb Code    26  psdk_arch_sys.o(.text)
    PsdkSys_MutexDestroy                     0x0803ef7f   Thumb Code    32  psdk_arch_sys.o(.text)
    PsdkSys_MutexLock                        0x0803ef9f   Thumb Code    36  psdk_arch_sys.o(.text)
    PsdkSys_MutexUnlock                      0x0803efc3   Thumb Code    32  psdk_arch_sys.o(.text)
    PsdkSys_SemaphoreNew                     0x0803efe3   Thumb Code    26  psdk_arch_sys.o(.text)
    PsdkSys_SemaphoreDestroy                 0x0803effd   Thumb Code    32  psdk_arch_sys.o(.text)
    PsdkSys_SemaphoreTimedWait               0x0803f01d   Thumb Code    36  psdk_arch_sys.o(.text)
    PsdkSys_SemaphorePost                    0x0803f041   Thumb Code    32  psdk_arch_sys.o(.text)
    osKernelStart                            0x0803f0af   Thumb Code    10  cmsis_os.o(.text)
    osKernelRunning                          0x0803f0b9   Thumb Code    18  cmsis_os.o(.text)
    osKernelSysTick                          0x0803f0cb   Thumb Code    24  cmsis_os.o(.text)
    osThreadCreate                           0x0803f0e3   Thumb Code    46  cmsis_os.o(.text)
    osThreadGetId                            0x0803f111   Thumb Code     4  cmsis_os.o(.text)
    osThreadTerminate                        0x0803f115   Thumb Code    10  cmsis_os.o(.text)
    osThreadYield                            0x0803f11f   Thumb Code    20  cmsis_os.o(.text)
    osThreadSetPriority                      0x0803f133   Thumb Code    22  cmsis_os.o(.text)
    osThreadGetPriority                      0x0803f149   Thumb Code    34  cmsis_os.o(.text)
    osDelay                                  0x0803f16b   Thumb Code    16  cmsis_os.o(.text)
    osTimerCreate                            0x0803f17b   Thumb Code     4  cmsis_os.o(.text)
    osTimerStart                             0x0803f17f   Thumb Code     4  cmsis_os.o(.text)
    osTimerStop                              0x0803f183   Thumb Code     4  cmsis_os.o(.text)
    osTimerDelete                            0x0803f187   Thumb Code     4  cmsis_os.o(.text)
    osSignalSet                              0x0803f18b   Thumb Code    92  cmsis_os.o(.text)
    osSignalWait                             0x0803f1e7   Thumb Code    90  cmsis_os.o(.text)
    osMutexCreate                            0x0803f241   Thumb Code     6  cmsis_os.o(.text)
    osMutexWait                              0x0803f247   Thumb Code   102  cmsis_os.o(.text)
    osMutexRelease                           0x0803f2ad   Thumb Code    76  cmsis_os.o(.text)
    osMutexDelete                            0x0803f2f9   Thumb Code    24  cmsis_os.o(.text)
    osSemaphoreCreate                        0x0803f311   Thumb Code    48  cmsis_os.o(.text)
    osSemaphoreWait                          0x0803f341   Thumb Code   102  cmsis_os.o(.text)
    osSemaphoreRelease                       0x0803f3a7   Thumb Code    76  cmsis_os.o(.text)
    osSemaphoreDelete                        0x0803f3f3   Thumb Code    24  cmsis_os.o(.text)
    osPoolCreate                             0x0803f40b   Thumb Code   106  cmsis_os.o(.text)
    osPoolAlloc                              0x0803f475   Thumb Code   104  cmsis_os.o(.text)
    osPoolCAlloc                             0x0803f4dd   Thumb Code    16  cmsis_os.o(.text)
    osPoolFree                               0x0803f4ed   Thumb Code    70  cmsis_os.o(.text)
    osMessageCreate                          0x0803f533   Thumb Code     8  cmsis_os.o(.text)
    osMessagePut                             0x0803f53b   Thumb Code    92  cmsis_os.o(.text)
    osMessageGet                             0x0803f597   Thumb Code   146  cmsis_os.o(.text)
    osMailCreate                             0x0803f629   Thumb Code   100  cmsis_os.o(.text)
    osMailAlloc                              0x0803f68d   Thumb Code    12  cmsis_os.o(.text)
    osMailCAlloc                             0x0803f699   Thumb Code    34  cmsis_os.o(.text)
    osMailPut                                0x0803f6bb   Thumb Code    92  cmsis_os.o(.text)
    osMailGet                                0x0803f717   Thumb Code   142  cmsis_os.o(.text)
    osMailFree                               0x0803f7a5   Thumb Code    12  cmsis_os.o(.text)
    osSystickHandler                         0x0803f7b1   Thumb Code    20  cmsis_os.o(.text)
    osThreadSuspend                          0x0803f7c5   Thumb Code    10  cmsis_os.o(.text)
    osThreadResume                           0x0803f7cf   Thumb Code    46  cmsis_os.o(.text)
    osThreadSuspendAll                       0x0803f7fd   Thumb Code    10  cmsis_os.o(.text)
    osThreadResumeAll                        0x0803f807   Thumb Code    18  cmsis_os.o(.text)
    osDelayUntil                             0x0803f819   Thumb Code    16  cmsis_os.o(.text)
    osAbortDelay                             0x0803f829   Thumb Code     4  cmsis_os.o(.text)
    osThreadList                             0x0803f82d   Thumb Code    10  cmsis_os.o(.text)
    osMessagePeek                            0x0803f837   Thumb Code    78  cmsis_os.o(.text)
    osMessageWaiting                         0x0803f885   Thumb Code    30  cmsis_os.o(.text)
    osMessageAvailableSpace                  0x0803f8a3   Thumb Code     4  cmsis_os.o(.text)
    osMessageDelete                          0x0803f8a7   Thumb Code    24  cmsis_os.o(.text)
    osRecursiveMutexCreate                   0x0803f8bf   Thumb Code     6  cmsis_os.o(.text)
    osRecursiveMutexRelease                  0x0803f8c5   Thumb Code    18  cmsis_os.o(.text)
    osRecursiveMutexWait                     0x0803f8d7   Thumb Code    44  cmsis_os.o(.text)
    osSemaphoreGetCount                      0x0803f903   Thumb Code     4  cmsis_os.o(.text)
    xEventGroupCreate                        0x0803f90d   Thumb Code    26  event_groups.o(.text)
    xEventGroupSetBits                       0x0803f927   Thumb Code   160  event_groups.o(.text)
    xEventGroupSync                          0x0803f9c7   Thumb Code   194  event_groups.o(.text)
    xEventGroupWaitBits                      0x0803faa1   Thumb Code   258  event_groups.o(.text)
    xEventGroupClearBits                     0x0803fba3   Thumb Code    66  event_groups.o(.text)
    xEventGroupGetBitsFromISR                0x0803fbe5   Thumb Code    26  event_groups.o(.text)
    vEventGroupDelete                        0x0803fbff   Thumb Code    70  event_groups.o(.text)
    vEventGroupSetBitsCallback               0x0803fc45   Thumb Code     2  event_groups.o(.text)
    vEventGroupClearBitsCallback             0x0803fc47   Thumb Code     2  event_groups.o(.text)
    uxEventGroupGetNumber                    0x0803fc49   Thumb Code    12  event_groups.o(.text)
    vListInitialise                          0x0803fc59   Thumb Code    22  list.o(.text)
    vListInitialiseItem                      0x0803fc6f   Thumb Code     6  list.o(.text)
    vListInsertEnd                           0x0803fc75   Thumb Code    24  list.o(.text)
    vListInsert                              0x0803fc8d   Thumb Code    48  list.o(.text)
    uxListRemove                             0x0803fcbd   Thumb Code    36  list.o(.text)
    xQueueGenericReset                       0x0803fce1   Thumb Code   134  queue.o(.text)
    xQueueGenericCreate                      0x0803fd89   Thumb Code    68  queue.o(.text)
    xQueueGenericSend                        0x0803fec3   Thumb Code   352  queue.o(.text)
    xQueueCreateMutex                        0x08040039   Thumb Code    24  queue.o(.text)
    xQueueGiveMutexRecursive                 0x08040051   Thumb Code    64  queue.o(.text)
    xQueueGenericReceive                     0x080400d3   Thumb Code   394  queue.o(.text)
    xQueueTakeMutexRecursive                 0x0804025d   Thumb Code    70  queue.o(.text)
    xQueueCreateCountingSemaphore            0x080402a3   Thumb Code    60  queue.o(.text)
    xQueueGenericSendFromISR                 0x080402df   Thumb Code   188  queue.o(.text)
    xQueueGiveFromISR                        0x0804039b   Thumb Code   158  queue.o(.text)
    xQueueReceiveFromISR                     0x08040439   Thumb Code   154  queue.o(.text)
    xQueuePeekFromISR                        0x080404d3   Thumb Code   122  queue.o(.text)
    uxQueueMessagesWaiting                   0x0804054d   Thumb Code    38  queue.o(.text)
    uxQueueSpacesAvailable                   0x08040573   Thumb Code    42  queue.o(.text)
    uxQueueMessagesWaitingFromISR            0x0804059d   Thumb Code    24  queue.o(.text)
    vQueueUnregisterQueue                    0x080405b5   Thumb Code    36  queue.o(.text)
    vQueueDelete                             0x080405d9   Thumb Code    40  queue.o(.text)
    uxQueueGetQueueNumber                    0x08040601   Thumb Code     4  queue.o(.text)
    vQueueSetQueueNumber                     0x08040605   Thumb Code     4  queue.o(.text)
    ucQueueGetQueueType                      0x08040609   Thumb Code     6  queue.o(.text)
    xQueueIsQueueEmptyFromISR                0x0804060f   Thumb Code    32  queue.o(.text)
    xQueueIsQueueFullFromISR                 0x0804062f   Thumb Code    36  queue.o(.text)
    vQueueAddToRegistry                      0x08040653   Thumb Code    32  queue.o(.text)
    pcQueueGetName                           0x08040673   Thumb Code    34  queue.o(.text)
    xTaskCreate                              0x080407ff   Thumb Code    96  tasks.o(.text)
    vTaskDelete                              0x08040891   Thumb Code   158  tasks.o(.text)
    xTaskIncrementTick                       0x0804092f   Thumb Code   210  tasks.o(.text)
    xTaskResumeAll                           0x08040a01   Thumb Code   204  tasks.o(.text)
    vTaskSuspendAll                          0x08040b33   Thumb Code    10  tasks.o(.text)
    vTaskDelayUntil                          0x08040b3d   Thumb Code   142  tasks.o(.text)
    vTaskDelay                               0x08040bcb   Thumb Code    70  tasks.o(.text)
    eTaskGetState                            0x08040c11   Thumb Code    98  tasks.o(.text)
    uxTaskPriorityGet                        0x08040c73   Thumb Code    24  tasks.o(.text)
    uxTaskPriorityGetFromISR                 0x08040c8b   Thumb Code    40  tasks.o(.text)
    vTaskPrioritySet                         0x08040cb3   Thumb Code   188  tasks.o(.text)
    vTaskSwitchContext                       0x08040d6f   Thumb Code   112  tasks.o(.text)
    vTaskSuspend                             0x08040ddf   Thumb Code   158  tasks.o(.text)
    vTaskResume                              0x08040ebb   Thumb Code   114  tasks.o(.text)
    xTaskResumeFromISR                       0x08040f2d   Thumb Code   132  tasks.o(.text)
    vTaskStartScheduler                      0x0804101b   Thumb Code    86  tasks.o(.text)
    vTaskEndScheduler                        0x08041071   Thumb Code    24  tasks.o(.text)
    xTaskGetTickCount                        0x08041089   Thumb Code     6  tasks.o(.text)
    xTaskGetTickCountFromISR                 0x0804108f   Thumb Code    12  tasks.o(.text)
    uxTaskGetNumberOfTasks                   0x0804109b   Thumb Code     6  tasks.o(.text)
    pcTaskGetName                            0x080410a1   Thumb Code    30  tasks.o(.text)
    vTaskGetInfo                             0x080410d3   Thumb Code   120  tasks.o(.text)
    uxTaskGetSystemState                     0x080411a5   Thumb Code   158  tasks.o(.text)
    vTaskPlaceOnEventList                    0x08041243   Thumb Code    44  tasks.o(.text)
    vTaskPlaceOnUnorderedEventList           0x0804126f   Thumb Code    98  tasks.o(.text)
    xTaskRemoveFromEventList                 0x080412d1   Thumb Code   112  tasks.o(.text)
    xTaskRemoveFromUnorderedEventList        0x08041341   Thumb Code   114  tasks.o(.text)
    vTaskSetTimeOutState                     0x080413b3   Thumb Code    32  tasks.o(.text)
    xTaskCheckForTimeOut                     0x080413d3   Thumb Code   112  tasks.o(.text)
    vTaskMissedYield                         0x08041443   Thumb Code     8  tasks.o(.text)
    uxTaskGetTaskNumber                      0x0804144b   Thumb Code    12  tasks.o(.text)
    vTaskSetTaskNumber                       0x08041457   Thumb Code     8  tasks.o(.text)
    uxTaskGetStackHighWaterMark              0x0804145f   Thumb Code    12  tasks.o(.text)
    xTaskGetCurrentTaskHandle                0x0804146b   Thumb Code     6  tasks.o(.text)
    xTaskGetSchedulerState                   0x08041471   Thumb Code    24  tasks.o(.text)
    vTaskPriorityInherit                     0x08041489   Thumb Code   128  tasks.o(.text)
    xTaskPriorityDisinherit                  0x08041509   Thumb Code   146  tasks.o(.text)
    vTaskList                                0x080415bf   Thumb Code   168  tasks.o(.text)
    uxTaskResetEventItemValue                0x08041667   Thumb Code    20  tasks.o(.text)
    pvTaskIncrementMutexHeldCount            0x0804167b   Thumb Code    20  tasks.o(.text)
    ulTaskNotifyTake                         0x0804168f   Thumb Code   126  tasks.o(.text)
    xTaskNotifyWait                          0x0804170d   Thumb Code   132  tasks.o(.text)
    xTaskGenericNotify                       0x08041791   Thumb Code   194  tasks.o(.text)
    xTaskGenericNotifyFromISR                0x08041853   Thumb Code   244  tasks.o(.text)
    vTaskNotifyGiveFromISR                   0x08041947   Thumb Code   178  tasks.o(.text)
    xTaskNotifyStateClear                    0x080419f9   Thumb Code    46  tasks.o(.text)
    pvPortMalloc                             0x08041ac7   Thumb Code   208  heap_4.o(.text)
    vPortFree                                0x08041b97   Thumb Code    90  heap_4.o(.text)
    xPortGetFreeHeapSize                     0x08041bf1   Thumb Code     8  heap_4.o(.text)
    xPortGetMinimumEverFreeHeapSize          0x08041bf9   Thumb Code     8  heap_4.o(.text)
    vPortInitialiseBlocks                    0x08041c01   Thumb Code     2  heap_4.o(.text)
    pxPortInitialiseStack                    0x08041c35   Thumb Code    24  port.o(.text)
    vPortSetupTimerInterrupt                 0x08041c4d   Thumb Code    26  port.o(.text)
    xPortStartScheduler                      0x08041c67   Thumb Code   104  port.o(.text)
    vPortEndScheduler                        0x08041ccf   Thumb Code    28  port.o(.text)
    vPortEnterCritical                       0x08041ceb   Thumb Code    56  port.o(.text)
    vPortExitCritical                        0x08041d23   Thumb Code    38  port.o(.text)
    xPortSysTickHandler                      0x08041d49   Thumb Code    40  port.o(.text)
    vPortValidateInterruptPriority           0x08041d71   Thumb Code    76  port.o(.text)
    SystemInit                               0x08041e79   Thumb Code    64  system_stm32f10x.o(.text)
    SystemCoreClockUpdate                    0x08041eb9   Thumb Code   106  system_stm32f10x.o(.text)
    NVIC_PriorityGroupConfig                 0x08041f45   Thumb Code    10  misc.o(.text)
    NVIC_Init                                0x08041f4f   Thumb Code    96  misc.o(.text)
    NVIC_SetVectorTable                      0x08041faf   Thumb Code    14  misc.o(.text)
    NVIC_SystemLPConfig                      0x08041fbd   Thumb Code    24  misc.o(.text)
    SysTick_CLKSourceConfig                  0x08041fd5   Thumb Code    28  misc.o(.text)
    DMA_DeInit                               0x08041ffd   Thumb Code   238  stm32f10x_dma.o(.text)
    DMA_Init                                 0x080420eb   Thumb Code    58  stm32f10x_dma.o(.text)
    DMA_StructInit                           0x08042125   Thumb Code    26  stm32f10x_dma.o(.text)
    DMA_Cmd                                  0x0804213f   Thumb Code    26  stm32f10x_dma.o(.text)
    DMA_ITConfig                             0x08042159   Thumb Code    20  stm32f10x_dma.o(.text)
    DMA_SetCurrDataCounter                   0x0804216d   Thumb Code     4  stm32f10x_dma.o(.text)
    DMA_GetCurrDataCounter                   0x08042171   Thumb Code     6  stm32f10x_dma.o(.text)
    DMA_GetFlagStatus                        0x08042177   Thumb Code    30  stm32f10x_dma.o(.text)
    DMA_ClearFlag                            0x08042195   Thumb Code    20  stm32f10x_dma.o(.text)
    DMA_GetITStatus                          0x080421a9   Thumb Code    30  stm32f10x_dma.o(.text)
    DMA_ClearITPendingBit                    0x080421c7   Thumb Code    20  stm32f10x_dma.o(.text)
    EXTI_DeInit                              0x080421e5   Thumb Code    28  stm32f10x_exti.o(.text)
    EXTI_Init                                0x08042201   Thumb Code   110  stm32f10x_exti.o(.text)
    EXTI_StructInit                          0x0804226f   Thumb Code    14  stm32f10x_exti.o(.text)
    EXTI_GenerateSWInterrupt                 0x0804227d   Thumb Code    12  stm32f10x_exti.o(.text)
    EXTI_GetFlagStatus                       0x08042289   Thumb Code    18  stm32f10x_exti.o(.text)
    EXTI_ClearFlag                           0x0804229b   Thumb Code     8  stm32f10x_exti.o(.text)
    EXTI_GetITStatus                         0x080422a3   Thumb Code    28  stm32f10x_exti.o(.text)
    EXTI_ClearITPendingBit                   0x080422bf   Thumb Code     8  stm32f10x_exti.o(.text)
    GPIO_DeInit                              0x080422d1   Thumb Code   188  stm32f10x_gpio.o(.text)
    GPIO_AFIODeInit                          0x0804238d   Thumb Code    22  stm32f10x_gpio.o(.text)
    GPIO_Init                                0x080423a3   Thumb Code   166  stm32f10x_gpio.o(.text)
    GPIO_StructInit                          0x08042449   Thumb Code    16  stm32f10x_gpio.o(.text)
    GPIO_ReadInputDataBit                    0x08042459   Thumb Code    14  stm32f10x_gpio.o(.text)
    GPIO_ReadInputData                       0x08042467   Thumb Code     6  stm32f10x_gpio.o(.text)
    GPIO_ReadOutputDataBit                   0x0804246d   Thumb Code    14  stm32f10x_gpio.o(.text)
    GPIO_ReadOutputData                      0x0804247b   Thumb Code     6  stm32f10x_gpio.o(.text)
    GPIO_SetBits                             0x08042481   Thumb Code     4  stm32f10x_gpio.o(.text)
    GPIO_ResetBits                           0x08042485   Thumb Code     4  stm32f10x_gpio.o(.text)
    GPIO_WriteBit                            0x08042489   Thumb Code    12  stm32f10x_gpio.o(.text)
    GPIO_Write                               0x08042495   Thumb Code     4  stm32f10x_gpio.o(.text)
    GPIO_PinLockConfig                       0x08042499   Thumb Code    16  stm32f10x_gpio.o(.text)
    GPIO_EventOutputConfig                   0x080424a9   Thumb Code    22  stm32f10x_gpio.o(.text)
    GPIO_EventOutputCmd                      0x080424bf   Thumb Code     6  stm32f10x_gpio.o(.text)
    GPIO_PinRemapConfig                      0x080424c5   Thumb Code    86  stm32f10x_gpio.o(.text)
    GPIO_EXTILineConfig                      0x0804251b   Thumb Code    34  stm32f10x_gpio.o(.text)
    GPIO_ETH_MediaInterfaceConfig            0x0804253d   Thumb Code     8  stm32f10x_gpio.o(.text)
    RCC_DeInit                               0x08042569   Thumb Code    50  stm32f10x_rcc.o(.text)
    RCC_HSEConfig                            0x0804259b   Thumb Code    50  stm32f10x_rcc.o(.text)
    RCC_GetFlagStatus                        0x080425cd   Thumb Code    42  stm32f10x_rcc.o(.text)
    RCC_WaitForHSEStartUp                    0x080425f7   Thumb Code    48  stm32f10x_rcc.o(.text)
    RCC_AdjustHSICalibrationValue            0x08042627   Thumb Code    16  stm32f10x_rcc.o(.text)
    RCC_HSICmd                               0x08042637   Thumb Code     6  stm32f10x_rcc.o(.text)
    RCC_PLLConfig                            0x0804263d   Thumb Code    16  stm32f10x_rcc.o(.text)
    RCC_PLLCmd                               0x0804264d   Thumb Code     6  stm32f10x_rcc.o(.text)
    RCC_SYSCLKConfig                         0x08042653   Thumb Code    14  stm32f10x_rcc.o(.text)
    RCC_GetSYSCLKSource                      0x08042661   Thumb Code    10  stm32f10x_rcc.o(.text)
    RCC_HCLKConfig                           0x0804266b   Thumb Code    14  stm32f10x_rcc.o(.text)
    RCC_PCLK1Config                          0x08042679   Thumb Code    14  stm32f10x_rcc.o(.text)
    RCC_PCLK2Config                          0x08042687   Thumb Code    16  stm32f10x_rcc.o(.text)
    RCC_ITConfig                             0x08042697   Thumb Code    22  stm32f10x_rcc.o(.text)
    RCC_USBCLKConfig                         0x080426ad   Thumb Code     8  stm32f10x_rcc.o(.text)
    RCC_ADCCLKConfig                         0x080426b5   Thumb Code    14  stm32f10x_rcc.o(.text)
    RCC_LSEConfig                            0x080426c3   Thumb Code    36  stm32f10x_rcc.o(.text)
    RCC_LSICmd                               0x080426e7   Thumb Code     6  stm32f10x_rcc.o(.text)
    RCC_RTCCLKConfig                         0x080426ed   Thumb Code    10  stm32f10x_rcc.o(.text)
    RCC_RTCCLKCmd                            0x080426f7   Thumb Code     8  stm32f10x_rcc.o(.text)
    RCC_GetClocksFreq                        0x080426ff   Thumb Code   154  stm32f10x_rcc.o(.text)
    RCC_AHBPeriphClockCmd                    0x08042799   Thumb Code    22  stm32f10x_rcc.o(.text)
    RCC_APB2PeriphClockCmd                   0x080427af   Thumb Code    22  stm32f10x_rcc.o(.text)
    RCC_APB1PeriphClockCmd                   0x080427c5   Thumb Code    22  stm32f10x_rcc.o(.text)
    RCC_APB2PeriphResetCmd                   0x080427db   Thumb Code    22  stm32f10x_rcc.o(.text)
    RCC_APB1PeriphResetCmd                   0x080427f1   Thumb Code    22  stm32f10x_rcc.o(.text)
    RCC_BackupResetCmd                       0x08042807   Thumb Code     8  stm32f10x_rcc.o(.text)
    RCC_ClockSecuritySystemCmd               0x0804280f   Thumb Code     6  stm32f10x_rcc.o(.text)
    RCC_MCOConfig                            0x08042815   Thumb Code     6  stm32f10x_rcc.o(.text)
    RCC_ClearFlag                            0x0804281b   Thumb Code    12  stm32f10x_rcc.o(.text)
    RCC_GetITStatus                          0x08042827   Thumb Code    16  stm32f10x_rcc.o(.text)
    RCC_ClearITPendingBit                    0x08042837   Thumb Code     6  stm32f10x_rcc.o(.text)
    SDIO_DeInit                              0x0804285d   Thumb Code    26  stm32f10x_sdio.o(.text)
    SDIO_Init                                0x08042877   Thumb Code    40  stm32f10x_sdio.o(.text)
    SDIO_StructInit                          0x0804289f   Thumb Code    16  stm32f10x_sdio.o(.text)
    SDIO_ClockCmd                            0x080428af   Thumb Code     6  stm32f10x_sdio.o(.text)
    SDIO_SetPowerState                       0x080428b5   Thumb Code    18  stm32f10x_sdio.o(.text)
    SDIO_GetPowerState                       0x080428c7   Thumb Code    10  stm32f10x_sdio.o(.text)
    SDIO_ITConfig                            0x080428d1   Thumb Code    22  stm32f10x_sdio.o(.text)
    SDIO_DMACmd                              0x080428e7   Thumb Code     6  stm32f10x_sdio.o(.text)
    SDIO_SendCommand                         0x080428ed   Thumb Code    34  stm32f10x_sdio.o(.text)
    SDIO_CmdStructInit                       0x0804290f   Thumb Code    14  stm32f10x_sdio.o(.text)
    SDIO_GetCommandResponse                  0x0804291d   Thumb Code     8  stm32f10x_sdio.o(.text)
    SDIO_GetResponse                         0x08042925   Thumb Code    16  stm32f10x_sdio.o(.text)
    SDIO_DataConfig                          0x08042935   Thumb Code    38  stm32f10x_sdio.o(.text)
    SDIO_DataStructInit                      0x0804295b   Thumb Code    20  stm32f10x_sdio.o(.text)
    SDIO_GetDataCounter                      0x0804296f   Thumb Code     6  stm32f10x_sdio.o(.text)
    SDIO_ReadData                            0x08042975   Thumb Code     8  stm32f10x_sdio.o(.text)
    SDIO_WriteData                           0x0804297d   Thumb Code     8  stm32f10x_sdio.o(.text)
    SDIO_GetFIFOCount                        0x08042985   Thumb Code     6  stm32f10x_sdio.o(.text)
    SDIO_StartSDIOReadWait                   0x0804298b   Thumb Code     8  stm32f10x_sdio.o(.text)
    SDIO_StopSDIOReadWait                    0x08042993   Thumb Code     8  stm32f10x_sdio.o(.text)
    SDIO_SetSDIOReadWaitMode                 0x0804299b   Thumb Code     8  stm32f10x_sdio.o(.text)
    SDIO_SetSDIOOperation                    0x080429a3   Thumb Code     8  stm32f10x_sdio.o(.text)
    SDIO_SendSDIOSuspendCmd                  0x080429ab   Thumb Code     6  stm32f10x_sdio.o(.text)
    SDIO_CommandCompletionCmd                0x080429b1   Thumb Code     8  stm32f10x_sdio.o(.text)
    SDIO_CEATAITCmd                          0x080429b9   Thumb Code    12  stm32f10x_sdio.o(.text)
    SDIO_SendCEATACmd                        0x080429c5   Thumb Code     8  stm32f10x_sdio.o(.text)
    SDIO_GetFlagStatus                       0x080429cd   Thumb Code    16  stm32f10x_sdio.o(.text)
    SDIO_ClearFlag                           0x080429dd   Thumb Code     6  stm32f10x_sdio.o(.text)
    SDIO_GetITStatus                         0x080429e3   Thumb Code    16  stm32f10x_sdio.o(.text)
    SDIO_ClearITPendingBit                   0x080429f3   Thumb Code     6  stm32f10x_sdio.o(.text)
    TIM_DeInit                               0x08042a0d   Thumb Code   464  stm32f10x_tim.o(.text)
    TIM_TimeBaseInit                         0x08042bdd   Thumb Code   114  stm32f10x_tim.o(.text)
    TIM_OC1Init                              0x08042c4f   Thumb Code   114  stm32f10x_tim.o(.text)
    TIM_OC2Init                              0x08042cc1   Thumb Code   128  stm32f10x_tim.o(.text)
    TIM_OC3Init                              0x08042d41   Thumb Code   124  stm32f10x_tim.o(.text)
    TIM_OC4Init                              0x08042dbd   Thumb Code   160  stm32f10x_tim.o(.text)
    TIM_SetIC4Prescaler                      0x08042e5d   Thumb Code    24  stm32f10x_tim.o(.text)
    TIM_SetIC3Prescaler                      0x08042edb   Thumb Code    16  stm32f10x_tim.o(.text)
    TIM_SetIC2Prescaler                      0x08042f4d   Thumb Code    24  stm32f10x_tim.o(.text)
    TIM_SetIC1Prescaler                      0x08042fcb   Thumb Code    16  stm32f10x_tim.o(.text)
    TIM_ICInit                               0x08043039   Thumb Code   114  stm32f10x_tim.o(.text)
    TIM_PWMIConfig                           0x080430ab   Thumb Code   106  stm32f10x_tim.o(.text)
    TIM_BDTRConfig                           0x08043115   Thumb Code    34  stm32f10x_tim.o(.text)
    TIM_TimeBaseStructInit                   0x08043137   Thumb Code    18  stm32f10x_tim.o(.text)
    TIM_OCStructInit                         0x08043149   Thumb Code    20  stm32f10x_tim.o(.text)
    TIM_ICStructInit                         0x0804315d   Thumb Code    16  stm32f10x_tim.o(.text)
    TIM_BDTRStructInit                       0x0804316d   Thumb Code    18  stm32f10x_tim.o(.text)
    TIM_Cmd                                  0x0804317f   Thumb Code    24  stm32f10x_tim.o(.text)
    TIM_CtrlPWMOutputs                       0x08043197   Thumb Code    28  stm32f10x_tim.o(.text)
    TIM_ITConfig                             0x080431b3   Thumb Code    20  stm32f10x_tim.o(.text)
    TIM_GenerateEvent                        0x080431c7   Thumb Code     4  stm32f10x_tim.o(.text)
    TIM_DMAConfig                            0x080431cb   Thumb Code     8  stm32f10x_tim.o(.text)
    TIM_DMACmd                               0x080431d3   Thumb Code    20  stm32f10x_tim.o(.text)
    TIM_InternalClockConfig                  0x080431e7   Thumb Code    10  stm32f10x_tim.o(.text)
    TIM_SelectInputTrigger                   0x080431f1   Thumb Code    12  stm32f10x_tim.o(.text)
    TIM_ITRxExternalClockConfig              0x080431fd   Thumb Code    20  stm32f10x_tim.o(.text)
    TIM_TIxExternalClockConfig               0x08043211   Thumb Code    48  stm32f10x_tim.o(.text)
    TIM_ETRConfig                            0x08043241   Thumb Code    24  stm32f10x_tim.o(.text)
    TIM_ETRClockMode1Config                  0x08043259   Thumb Code    52  stm32f10x_tim.o(.text)
    TIM_ETRClockMode2Config                  0x0804328d   Thumb Code    20  stm32f10x_tim.o(.text)
    TIM_PrescalerConfig                      0x080432a1   Thumb Code     6  stm32f10x_tim.o(.text)
    TIM_CounterModeConfig                    0x080432a7   Thumb Code    12  stm32f10x_tim.o(.text)
    TIM_EncoderInterfaceConfig               0x080432b3   Thumb Code    50  stm32f10x_tim.o(.text)
    TIM_ForcedOC1Config                      0x080432e5   Thumb Code    12  stm32f10x_tim.o(.text)
    TIM_ForcedOC2Config                      0x080432f1   Thumb Code    20  stm32f10x_tim.o(.text)
    TIM_ForcedOC3Config                      0x08043305   Thumb Code    12  stm32f10x_tim.o(.text)
    TIM_ForcedOC4Config                      0x08043311   Thumb Code    20  stm32f10x_tim.o(.text)
    TIM_ARRPreloadConfig                     0x08043325   Thumb Code    24  stm32f10x_tim.o(.text)
    TIM_SelectCOM                            0x0804333d   Thumb Code    24  stm32f10x_tim.o(.text)
    TIM_SelectCCDMA                          0x08043355   Thumb Code    24  stm32f10x_tim.o(.text)
    TIM_CCPreloadControl                     0x0804336d   Thumb Code    24  stm32f10x_tim.o(.text)
    TIM_OC1PreloadConfig                     0x08043385   Thumb Code    12  stm32f10x_tim.o(.text)
    TIM_OC2PreloadConfig                     0x08043391   Thumb Code    20  stm32f10x_tim.o(.text)
    TIM_OC3PreloadConfig                     0x080433a5   Thumb Code    12  stm32f10x_tim.o(.text)
    TIM_OC4PreloadConfig                     0x080433b1   Thumb Code    20  stm32f10x_tim.o(.text)
    TIM_OC1FastConfig                        0x080433c5   Thumb Code    12  stm32f10x_tim.o(.text)
    TIM_OC2FastConfig                        0x080433d1   Thumb Code    20  stm32f10x_tim.o(.text)
    TIM_OC3FastConfig                        0x080433e5   Thumb Code    12  stm32f10x_tim.o(.text)
    TIM_OC4FastConfig                        0x080433f1   Thumb Code    20  stm32f10x_tim.o(.text)
    TIM_ClearOC1Ref                          0x08043405   Thumb Code    12  stm32f10x_tim.o(.text)
    TIM_ClearOC2Ref                          0x08043411   Thumb Code    20  stm32f10x_tim.o(.text)
    TIM_ClearOC3Ref                          0x08043425   Thumb Code    12  stm32f10x_tim.o(.text)
    TIM_ClearOC4Ref                          0x08043431   Thumb Code    20  stm32f10x_tim.o(.text)
    TIM_OC1PolarityConfig                    0x08043445   Thumb Code    12  stm32f10x_tim.o(.text)
    TIM_OC1NPolarityConfig                   0x08043451   Thumb Code    12  stm32f10x_tim.o(.text)
    TIM_OC2PolarityConfig                    0x0804345d   Thumb Code    20  stm32f10x_tim.o(.text)
    TIM_OC2NPolarityConfig                   0x08043471   Thumb Code    20  stm32f10x_tim.o(.text)
    TIM_OC3PolarityConfig                    0x08043485   Thumb Code    20  stm32f10x_tim.o(.text)
    TIM_OC3NPolarityConfig                   0x08043499   Thumb Code    20  stm32f10x_tim.o(.text)
    TIM_OC4PolarityConfig                    0x080434ad   Thumb Code    20  stm32f10x_tim.o(.text)
    TIM_CCxCmd                               0x080434c1   Thumb Code    22  stm32f10x_tim.o(.text)
    TIM_CCxNCmd                              0x080434d7   Thumb Code    22  stm32f10x_tim.o(.text)
    TIM_SelectOCxM                           0x080434ed   Thumb Code    76  stm32f10x_tim.o(.text)
    TIM_UpdateDisableConfig                  0x08043539   Thumb Code    24  stm32f10x_tim.o(.text)
    TIM_UpdateRequestConfig                  0x08043551   Thumb Code    24  stm32f10x_tim.o(.text)
    TIM_SelectHallSensor                     0x08043569   Thumb Code    24  stm32f10x_tim.o(.text)
    TIM_SelectOnePulseMode                   0x08043581   Thumb Code    16  stm32f10x_tim.o(.text)
    TIM_SelectOutputTrigger                  0x08043591   Thumb Code    16  stm32f10x_tim.o(.text)
    TIM_SelectSlaveMode                      0x080435a1   Thumb Code    16  stm32f10x_tim.o(.text)
    TIM_SelectMasterSlaveMode                0x080435b1   Thumb Code    16  stm32f10x_tim.o(.text)
    TIM_SetCounter                           0x080435c1   Thumb Code     4  stm32f10x_tim.o(.text)
    TIM_SetAutoreload                        0x080435c5   Thumb Code     4  stm32f10x_tim.o(.text)
    TIM_SetCompare1                          0x080435c9   Thumb Code     4  stm32f10x_tim.o(.text)
    TIM_SetCompare2                          0x080435cd   Thumb Code     4  stm32f10x_tim.o(.text)
    TIM_SetCompare3                          0x080435d1   Thumb Code     4  stm32f10x_tim.o(.text)
    TIM_SetCompare4                          0x080435d5   Thumb Code     6  stm32f10x_tim.o(.text)
    TIM_SetClockDivision                     0x080435db   Thumb Code    16  stm32f10x_tim.o(.text)
    TIM_GetCapture1                          0x080435eb   Thumb Code     4  stm32f10x_tim.o(.text)
    TIM_GetCapture2                          0x080435ef   Thumb Code     4  stm32f10x_tim.o(.text)
    TIM_GetCapture3                          0x080435f3   Thumb Code     4  stm32f10x_tim.o(.text)
    TIM_GetCapture4                          0x080435f7   Thumb Code     6  stm32f10x_tim.o(.text)
    TIM_GetCounter                           0x080435fd   Thumb Code     4  stm32f10x_tim.o(.text)
    TIM_GetPrescaler                         0x08043601   Thumb Code     4  stm32f10x_tim.o(.text)
    TIM_GetFlagStatus                        0x08043605   Thumb Code    14  stm32f10x_tim.o(.text)
    TIM_ClearFlag                            0x08043613   Thumb Code     6  stm32f10x_tim.o(.text)
    TIM_GetITStatus                          0x08043619   Thumb Code    24  stm32f10x_tim.o(.text)
    TIM_ClearITPendingBit                    0x08043631   Thumb Code     6  stm32f10x_tim.o(.text)
    USART_DeInit                             0x08043639   Thumb Code   144  stm32f10x_usart.o(.text)
    USART_Init                               0x080436c9   Thumb Code   182  stm32f10x_usart.o(.text)
    USART_StructInit                         0x0804377f   Thumb Code    22  stm32f10x_usart.o(.text)
    USART_ClockInit                          0x08043795   Thumb Code    30  stm32f10x_usart.o(.text)
    USART_ClockStructInit                    0x080437b3   Thumb Code    12  stm32f10x_usart.o(.text)
    USART_Cmd                                0x080437bf   Thumb Code    24  stm32f10x_usart.o(.text)
    USART_ITConfig                           0x080437d7   Thumb Code    54  stm32f10x_usart.o(.text)
    USART_DMACmd                             0x0804380d   Thumb Code    20  stm32f10x_usart.o(.text)
    USART_SetAddress                         0x08043821   Thumb Code    16  stm32f10x_usart.o(.text)
    USART_WakeUpConfig                       0x08043831   Thumb Code    16  stm32f10x_usart.o(.text)
    USART_ReceiverWakeUpCmd                  0x08043841   Thumb Code    24  stm32f10x_usart.o(.text)
    USART_LINBreakDetectLengthConfig         0x08043859   Thumb Code    16  stm32f10x_usart.o(.text)
    USART_LINCmd                             0x08043869   Thumb Code    24  stm32f10x_usart.o(.text)
    USART_SendData                           0x08043881   Thumb Code     8  stm32f10x_usart.o(.text)
    USART_ReceiveData                        0x08043889   Thumb Code     8  stm32f10x_usart.o(.text)
    USART_SendBreak                          0x08043891   Thumb Code    10  stm32f10x_usart.o(.text)
    USART_SetGuardTime                       0x0804389b   Thumb Code    16  stm32f10x_usart.o(.text)
    USART_SetPrescaler                       0x080438ab   Thumb Code    16  stm32f10x_usart.o(.text)
    USART_SmartCardCmd                       0x080438bb   Thumb Code    24  stm32f10x_usart.o(.text)
    USART_SmartCardNACKCmd                   0x080438d3   Thumb Code    24  stm32f10x_usart.o(.text)
    USART_HalfDuplexCmd                      0x080438eb   Thumb Code    24  stm32f10x_usart.o(.text)
    USART_OverSampling8Cmd                   0x08043903   Thumb Code    24  stm32f10x_usart.o(.text)
    USART_OneBitMethodCmd                    0x0804391b   Thumb Code    24  stm32f10x_usart.o(.text)
    USART_IrDAConfig                         0x08043933   Thumb Code    16  stm32f10x_usart.o(.text)
    USART_IrDACmd                            0x08043943   Thumb Code    24  stm32f10x_usart.o(.text)
    USART_GetFlagStatus                      0x0804395b   Thumb Code    14  stm32f10x_usart.o(.text)
    USART_ClearFlag                          0x08043969   Thumb Code     8  stm32f10x_usart.o(.text)
    USART_GetITStatus                        0x08043971   Thumb Code    64  stm32f10x_usart.o(.text)
    USART_ClearITPendingBit                  0x080439b1   Thumb Code    16  stm32f10x_usart.o(.text)
    disk_status                              0x080439d5   Thumb Code    12  diskio.o(.text)
    disk_initialize                          0x080439e1   Thumb Code    20  diskio.o(.text)
    disk_read                                0x080439f5   Thumb Code   122  diskio.o(.text)
    disk_write                               0x08043a6f   Thumb Code   126  diskio.o(.text)
    disk_ioctl                               0x08043aed   Thumb Code    60  diskio.o(.text)
    get_fattime                              0x08043b29   Thumb Code     4  diskio.o(.text)
    clust2sect                               0x08043cbd   Thumb Code    24  ff.o(.text)
    get_fat                                  0x08043cd5   Thumb Code   254  ff.o(.text)
    put_fat                                  0x08043dd3   Thumb Code   300  ff.o(.text)
    f_mount                                  0x08044ebf   Thumb Code    74  ff.o(.text)
    f_open                                   0x08044f09   Thumb Code   352  ff.o(.text)
    f_read                                   0x08045069   Thumb Code   380  ff.o(.text)
    f_write                                  0x080451e5   Thumb Code   452  ff.o(.text)
    f_sync                                   0x080453a9   Thumb Code   154  ff.o(.text)
    f_close                                  0x08045443   Thumb Code    30  ff.o(.text)
    f_lseek                                  0x08045461   Thumb Code   370  ff.o(.text)
    f_opendir                                0x080455d3   Thumb Code   116  ff.o(.text)
    f_closedir                               0x08045647   Thumb Code    20  ff.o(.text)
    f_readdir                                0x0804565b   Thumb Code    94  ff.o(.text)
    f_stat                                   0x080456b9   Thumb Code    68  ff.o(.text)
    f_getfree                                0x080456fd   Thumb Code   220  ff.o(.text)
    f_truncate                               0x080457d9   Thumb Code   178  ff.o(.text)
    f_unlink                                 0x0804588b   Thumb Code   170  ff.o(.text)
    f_mkdir                                  0x08045935   Thumb Code   356  ff.o(.text)
    f_chmod                                  0x08045a99   Thumb Code    84  ff.o(.text)
    f_rename                                 0x08045aed   Thumb Code   250  ff.o(.text)
    f_utime                                  0x08045be7   Thumb Code    88  ff.o(.text)
    f_mkfs                                   0x08045c3f   Thumb Code  1384  ff.o(.text)
    f_gets                                   0x080461a7   Thumb Code    68  ff.o(.text)
    f_putc                                   0x08046225   Thumb Code    60  ff.o(.text)
    f_puts                                   0x08046261   Thumb Code    70  ff.o(.text)
    f_printf                                 0x080462a7   Thumb Code   550  ff.o(.text)
    ff_convert                               0x080464cd   Thumb Code    78  cc936.o(.text)
    ff_wtoupper                              0x0804651b   Thumb Code    68  cc936.o(.text)
    __aeabi_uldivmod                         0x08046571   Thumb Code    98  uldiv.o(.text)
    _localtime                               0x080465d5   Thumb Code     0  localtime_r.o(.text)
    localtime_r                              0x080465d5   Thumb Code   134  localtime_r.o(.text)
    mktime                                   0x08046661   Thumb Code   150  mktime.o(.text)
    __aeabi_memcpy                           0x08046709   Thumb Code    36  memcpya.o(.text)
    __aeabi_memcpy4                          0x08046709   Thumb Code     0  memcpya.o(.text)
    __aeabi_memcpy8                          0x08046709   Thumb Code     0  memcpya.o(.text)
    __aeabi_memset                           0x0804672d   Thumb Code    14  memseta.o(.text)
    __aeabi_memset4                          0x0804672d   Thumb Code     0  memseta.o(.text)
    __aeabi_memset8                          0x0804672d   Thumb Code     0  memseta.o(.text)
    __aeabi_memclr                           0x0804673b   Thumb Code     4  memseta.o(.text)
    __aeabi_memclr4                          0x0804673b   Thumb Code     0  memseta.o(.text)
    __aeabi_memclr8                          0x0804673b   Thumb Code     0  memseta.o(.text)
    _memset$wrapper                          0x0804673f   Thumb Code    18  memseta.o(.text)
    strncpy                                  0x08046751   Thumb Code    24  strncpy.o(.text)
    strlen                                   0x08046769   Thumb Code    14  strlen.o(.text)
    strcmp                                   0x08046777   Thumb Code    28  strcmp.o(.text)
    strcpy                                   0x08046793   Thumb Code    18  strcpy.o(.text)
    atoi                                     0x080467a5   Thumb Code    26  atoi.o(.text)
    __aeabi_fmul                             0x080467bf   Thumb Code   100  fmul.o(.text)
    __aeabi_dadd                             0x08046823   Thumb Code   322  dadd.o(.text)
    __aeabi_dsub                             0x08046965   Thumb Code     6  dadd.o(.text)
    __aeabi_drsub                            0x0804696b   Thumb Code     6  dadd.o(.text)
    __aeabi_dmul                             0x08046971   Thumb Code   228  dmul.o(.text)
    __aeabi_ddiv                             0x08046a55   Thumb Code   222  ddiv.o(.text)
    __aeabi_i2d                              0x08046b33   Thumb Code    34  dflti.o(.text)
    __aeabi_ui2d                             0x08046b55   Thumb Code    26  dfltui.o(.text)
    __aeabi_f2iz                             0x08046b6f   Thumb Code    50  ffixi.o(.text)
    __aeabi_d2iz                             0x08046ba1   Thumb Code    62  dfixi.o(.text)
    __aeabi_d2uiz                            0x08046bdf   Thumb Code    50  dfixui.o(.text)
    __aeabi_cdcmpeq                          0x08046c11   Thumb Code     0  cdcmple.o(.text)
    __aeabi_cdcmple                          0x08046c11   Thumb Code    48  cdcmple.o(.text)
    __aeabi_d2f                              0x08046c41   Thumb Code    56  d2f.o(.text)
    __aeabi_uidiv                            0x08046c79   Thumb Code     0  uidiv.o(.text)
    __aeabi_uidivmod                         0x08046c79   Thumb Code    44  uidiv.o(.text)
    __aeabi_llsl                             0x08046ca5   Thumb Code    30  llshl.o(.text)
    _ll_shift_l                              0x08046ca5   Thumb Code     0  llshl.o(.text)
    __aeabi_llsr                             0x08046cc3   Thumb Code    32  llushr.o(.text)
    _ll_ushift_r                             0x08046cc3   Thumb Code     0  llushr.o(.text)
    __aeabi_lasr                             0x08046ce3   Thumb Code    36  llsshr.o(.text)
    _ll_sshift_r                             0x08046ce3   Thumb Code     0  llsshr.o(.text)
    strtol                                   0x08046d07   Thumb Code   112  strtol.o(.text)
    __I$use$fp                               0x08046d77   Thumb Code     0  iusefp.o(.text)
    _float_round                             0x08046d77   Thumb Code    18  fepilogue.o(.text)
    _float_epilogue                          0x08046d89   Thumb Code    92  fepilogue.o(.text)
    _double_round                            0x08046de5   Thumb Code    30  depilogue.o(.text)
    _double_epilogue                         0x08046e03   Thumb Code   156  depilogue.o(.text)
    __aeabi_d2ulz                            0x08046e9f   Thumb Code    48  dfixul.o(.text)
    __aeabi_cdrcmple                         0x08046ed1   Thumb Code    48  cdrcmple.o(.text)
    __scatterload                            0x08046f01   Thumb Code    28  init.o(.text)
    __scatterload_rt2                        0x08046f01   Thumb Code     0  init.o(.text)
    __rt_ctype_table                         0x08046f25   Thumb Code     4  ctype_o.o(.text)
    _strtoul                                 0x08046f2d   Thumb Code   158  _strtoul.o(.text)
    _chval                                   0x08046fcb   Thumb Code    28  _chval.o(.text)
    __decompress                             0x08046fe7   Thumb Code     0  __dczerorl2.o(.text)
    __decompress1                            0x08046fe7   Thumb Code    86  __dczerorl2.o(.text)
    __0sprintf                               0x0804703d   Thumb Code    34  printfa.o(i.__0sprintf)
    __1sprintf                               0x0804703d   Thumb Code     0  printfa.o(i.__0sprintf)
    __2sprintf                               0x0804703d   Thumb Code     0  printfa.o(i.__0sprintf)
    __c89sprintf                             0x0804703d   Thumb Code     0  printfa.o(i.__0sprintf)
    sprintf                                  0x0804703d   Thumb Code     0  printfa.o(i.__0sprintf)
    __0vsnprintf                             0x08047065   Thumb Code    40  printfa.o(i.__0vsnprintf)
    __1vsnprintf                             0x08047065   Thumb Code     0  printfa.o(i.__0vsnprintf)
    __2vsnprintf                             0x08047065   Thumb Code     0  printfa.o(i.__0vsnprintf)
    __c89vsnprintf                           0x08047065   Thumb Code     0  printfa.o(i.__0vsnprintf)
    vsnprintf                                0x08047065   Thumb Code     0  printfa.o(i.__0vsnprintf)
    __aeabi_errno_addr                       0x08047091   Thumb Code     4  errno.o(i.__aeabi_errno_addr)
    __rt_errno_addr                          0x08047091   Thumb Code     0  errno.o(i.__aeabi_errno_addr)
    __scatterload_copy                       0x08047099   Thumb Code    14  handlers.o(i.__scatterload_copy)
    __scatterload_null                       0x080470a7   Thumb Code     2  handlers.o(i.__scatterload_null)
    __scatterload_zeroinit                   0x080470a9   Thumb Code    14  handlers.o(i.__scatterload_zeroinit)
    os_messageQ_def_usart2SendMessageQ       0x080479e0   Data           8  main.o(.constdata)
    os_messageQ_def_oledShowMessageQ         0x080479e8   Data           8  main.o(.constdata)
    os_thread_def_APP_TASKCREATE1            0x080479f0   Data          20  main.o(.constdata)
    os_thread_def_OLED_TASK1                 0x08047a04   Data          20  main.o(.constdata)
    os_thread_def_KEY_TASK1                  0x08047a18   Data          20  main.o(.constdata)
    os_thread_def_CAM_TASK1                  0x08047a2c   Data          20  main.o(.constdata)
    os_thread_def_RGB_TASK1                  0x08047a40   Data          20  main.o(.constdata)
    os_thread_def_RUNINIT_TASK1              0x08047a54   Data          20  main.o(.constdata)
    os_thread_def_U2RECE_TASK1               0x08047a68   Data          20  main.o(.constdata)
    os_thread_def_TRIGGER_TASK1              0x08047a7c   Data          20  main.o(.constdata)
    os_thread_def_U2SEND_TASK1               0x08047a90   Data          20  main.o(.constdata)
    os_thread_def_FAN_TASK1                  0x08047aa4   Data          20  main.o(.constdata)
    os_thread_def_n_psdkRecTask              0x08047ab8   Data          20  main.o(.constdata)
    os_thread_def_n_psdkTestTask             0x08047acc   Data          20  main.o(.constdata)
    os_thread_def_PPS_TASK1                  0x08047ae0   Data          20  main.o(.constdata)
    g_TestWidgetCount                        0x08047d64   Data           1  test_app_func.o(.constdata)
    g_PushDataMsgCallbackList                0x08047d9c   Data          48  test_msg_push.o(.constdata)
    g_testCameraHandler                      0x08047dcc   Data         144  test_payload_cam_emu.o(.constdata)
    g_testGimbalHandler                      0x08047fd8   Data          32  test_payload_gimbal_emu.o(.constdata)
    g_testOsdkFuncHandler                    0x080480ac   Data           4  test_osdk_func.o(.constdata)
    F8X16                                    0x08048164   Data        1520  cocoguojia_oled.o(.constdata)
    __ctype_table                            0x08074674   Data         129  ctype_o.o(.constdata)
    Region$$Table$$Base                      0x08074a78   Number         0  anon$$obj.o(Region$$Table)
    Region$$Table$$Limit                     0x08074a98   Number         0  anon$$obj.o(Region$$Table)
    g_ds18b20ToShow                          0x20000000   Data           2  application.o(.data)
    triggertime                              0x20000008   Data           4  application.o(.data)
    uxHighWaterMarkpsdk                      0x2000000c   Data           4  application.o(.data)
    uxHighWaterMarkpro                       0x20000010   Data           4  application.o(.data)
    uxHighWaterMarkpps                       0x20000014   Data           4  application.o(.data)
    bukepaizhaoTable                         0x20000018   Data          19  application.o(.data)
    APP_TASKCREATE_Handle                    0x2000002c   Data           4  main.o(.data)
    OLED_TASK_Handle                         0x20000030   Data           4  main.o(.data)
    KEY_TASK_Handle                          0x20000034   Data           4  main.o(.data)
    CAM_TASK_Handle                          0x20000038   Data           4  main.o(.data)
    RGB_TASK_Handle                          0x2000003c   Data           4  main.o(.data)
    RUNINIT_TASK_Handle                      0x20000040   Data           4  main.o(.data)
    U2RECE_TASK_Handle                       0x20000044   Data           4  main.o(.data)
    TRIGGER_TASK_Handle                      0x20000048   Data           4  main.o(.data)
    U2SEND_TASK_Handle                       0x2000004c   Data           4  main.o(.data)
    FAN_TASK_Handle                          0x20000050   Data           4  main.o(.data)
    processRecDataTaskHandle                 0x20000054   Data           4  main.o(.data)
    psdkTestTaskHandle                       0x20000058   Data           4  main.o(.data)
    PPS_TASK_Handle                          0x2000005c   Data           4  main.o(.data)
    Key_EventGroup                           0x20000060   Data           4  main.o(.data)
    usart2SendMessageQHandle                 0x20000064   Data           4  main.o(.data)
    oledShowMessageQHandle                   0x20000068   Data           4  main.o(.data)
    g_TestWidgetList                         0x20000094   Data           4  test_app_func.o(.data)
    timesigner                               0x20000148   Data           1  test_positioning.o(.data)
    ppssignal                                0x2000014c   Data           4  pps.o(.data)
    ppsNewestTriggerTimeMs                   0x20000150   Data           4  pps.o(.data)
    ppsNewTimeMs                             0x20000154   Data           4  pps.o(.data)
    uxHighWaterMarkcam                       0x2000015c   Data           4  cam_task.o(.data)
    uxHighWaterMarkkey                       0x20000160   Data           4  key_task.o(.data)
    uxHighWaterMark                          0x20000164   Data           4  oled_task.o(.data)
    g_shutPhotoFlag                          0x20000168   Data           1  rgb_task.o(.data)
    triggeStartDelayN                        0x2000016a   Data           2  rgb_task.o(.data)
    uxHighWaterMarkrgb                       0x2000016c   Data           4  rgb_task.o(.data)
    uxHighWaterMarkrun                       0x20000170   Data           4  runinit_task.o(.data)
    g_openCamStateFlag                       0x20000174   Data           1  trigger_task.o(.data)
    g_canPhotoStateFlag                      0x20000175   Data           1  trigger_task.o(.data)
    g_ds18b20Temp                            0x20000176   Data           2  trigger_task.o(.data)
    phototime                                0x20000178   Data           4  trigger_task.o(.data)
    phototimeadd                             0x2000017c   Data           4  trigger_task.o(.data)
    uxHighWaterMarktrigger                   0x20000180   Data           4  trigger_task.o(.data)
    g_oledStateFlag                          0x20000184   Data           4  u2rece_task.o(.data)
    g_tim5CatchNum                           0x20000188   Data           2  u2rece_task.o(.data)
    g_capture_FinishAndStartPhotoFlag        0x2000018a   Data           1  u2rece_task.o(.data)
    uxHighWaterMarku2rece                    0x2000018c   Data           4  u2rece_task.o(.data)
    g_camPowerFlagTable                      0x20000190   Data           6  u2rece_task.o(.data)
    g_camLoseFlagTable                       0x20000196   Data           6  u2rece_task.o(.data)
    g_theTurelostNumTable                    0x2000019c   Data           6  u2rece_task.o(.data)
    g_camRtkFlagTable                        0x200001a2   Data           6  u2rece_task.o(.data)
    g_readingFlag                            0x200001a8   Data           1  u2rece_task.o(.data)
    g_setModelFlag                           0x200001a9   Data           1  u2rece_task.o(.data)
    g_signalOrAutoModelFlag                  0x200001aa   Data           1  u2rece_task.o(.data)
    g_currentRowNum                          0x200001ab   Data           1  u2rece_task.o(.data)
    g_camTaskCanTakeOverFlag                 0x200001ac   Data           1  u2rece_task.o(.data)
    g_offOrOnTureStateFlag                   0x200001b0   Data           4  u2rece_task.o(.data)
    g_temperatureDelayLastFlag               0x200001b4   Data           1  u2rece_task.o(.data)
    g_ppsRtkHealthNum                        0x200001b5   Data           1  u2rece_task.o(.data)
    uxHighWaterMarku2send                    0x200001b8   Data           4  u2send_task.o(.data)
    g_fanDs18b20Flag                         0x200001bc   Data           1  fan_task.o(.data)
    uxHighWaterMarkfan                       0x200001c0   Data           4  fan_task.o(.data)
    g_fanTurePhotoEnFlag                     0x200001c4   Data           1  fan_task.o(.data)
    readbuf                                  0x200001c5   Data           8  cocoguojia_24c02.o(.data)
    Hzk                                      0x200001d2   Data         448  cocoguojia_oled.o(.data)
    BMP3                                     0x20000392   Data         128  cocoguojia_oled.o(.data)
    Hzk2                                     0x20000412   Data        2176  cocoguojia_oled.o(.data)
    g_nameFlag                               0x20000ca4   Data           1  cocoguojia_sdcard.o(.data)
    g_registeredWorkspaceN                   0x20000ca5   Data           1  cocoguojia_sdcard.o(.data)
    g_gpsTableFlag                           0x20000ca6   Data           1  cocoguojia_sdcard.o(.data)
    myResetFlash                             0x20000ca8   Data           1  cocoguojia_sdcard.o(.data)
    len                                      0x20000ca9   Data           1  cocoguojia_sdcard.o(.data)
    g_sdWriteForGpsRtkNum                    0x20000caa   Data           2  cocoguojia_sdcard.o(.data)
    now_jc                                   0x20000cac   Data           4  cocoguojia_sdcard.o(.data)
    MAX_JC                                   0x20000cb0   Data           4  cocoguojia_sdcard.o(.data)
    myFileNum                                0x20000cb4   Data           4  cocoguojia_sdcard.o(.data)
    g_cocoguojia_sdcard_txtname20            0x20000cb8   Data          20  cocoguojia_sdcard.o(.data)
    g_cocoguojia_sdcard_myWriteBuffer200     0x20000ccc   Data         200  cocoguojia_sdcard.o(.data)
    sdcard_myWriteBuffer120                  0x20000d94   Data         120  cocoguojia_sdcard.o(.data)
    TransferError                            0x20000e0c   Data           1  cocoguojia_sdio.o(.data)
    g_sdioFac_ms                             0x20000e0e   Data           2  cocoguojia_sdio.o(.data)
    StopCondition                            0x20000e18   Data           4  cocoguojia_sdio.o(.data)
    TransferEnd                              0x20000e1c   Data           4  cocoguojia_sdio.o(.data)
    pxCurrentTCB                             0x20001244   Data           4  tasks.o(.data)
    SystemCoreClock                          0x200012a4   Data           4  system_stm32f10x.o(.data)
    AHBPrescTable                            0x200012a8   Data          16  system_stm32f10x.o(.data)
    xinhaoTable                              0x200012dc   Data          10  application.o(.bss)
    bj_timer                                 0x200012e6   Data          39  application.o(.bss)
    g_gps003Table                            0x20001f88   Data         200  application.o(.bss)
    x_gpsRawDataMsg                          0x20002450   Data          68  test_msg_push.o(.bss)
    utc_time                                 0x20002494   Data          39  test_positioning.o(.bss)
    writesdpos                               0x200024cc   Data         285  test_positioning.o(.bss)
    g_photoPicNum                            0x200025ea   Data          12  u2rece_task.o(.bss)
    txt_name                                 0x20003240   Data          20  cocoguojia_sdcard.o(.bss)
    gpsRtkTempTableTemp                      0x20003254   Data         200  cocoguojia_sdcard.o(.bss)
    myFatFs                                  0x2000331c   Data        4152  cocoguojia_sdcard.o(.bss)
    myFile                                   0x20004354   Data        4136  cocoguojia_sdcard.o(.bss)
    dirs                                     0x2000537c   Data          40  cocoguojia_sdcard.o(.bss)
    finfo                                    0x200053a4   Data          36  cocoguojia_sdcard.o(.bss)
    g_gps001Table                            0x200053c8   Data         200  cocoguojia_sdcard.o(.bss)
    g_gps002Table                            0x20005490   Data         200  cocoguojia_sdcard.o(.bss)
    SDCardInfo                               0x20005588   Data          88  cocoguojia_sdio.o(.bss)
    SDIO_InitStructure                       0x200055e0   Data          24  cocoguojia_sdio.o(.bss)
    SDIO_CmdInitStructure                    0x200055f8   Data          20  cocoguojia_sdio.o(.bss)
    SDIO_DataInitStructure                   0x2000560c   Data          24  cocoguojia_sdio.o(.bss)
    xQueueRegistry                           0x200057bc   Data          64  queue.o(.bss)
    __initial_sp                             0x2000f4f0   Data           0  startup_stm32f10x_hd.o(STACK)



==============================================================================

Memory Map of the image

  Image Entry point : 0x08035131

  Load Region LR_IROM1 (Base: 0x08035000, Size: 0x00040d74, Max: 0x00045000, ABSOLUTE, COMPRESSED[0x0004044c])

    Execution Region ER_IROM1 (Exec base: 0x08035000, Load base: 0x08035000, Size: 0x0003fa98, Max: 0x00045000, ABSOLUTE)

    Exec Addr    Load Addr    Size         Type   Attr      Idx    E Section Name        Object

    0x08035000   0x08035000   0x00000130   Data   RO            3    RESET               startup_stm32f10x_hd.o
    0x08035130   0x08035130   0x00000000   Code   RO         1593  * .ARM.Collect$$$$00000000  mc_w.l(entry.o)
    0x08035130   0x08035130   0x00000004   Code   RO         1906    .ARM.Collect$$$$00000001  mc_w.l(entry2.o)
    0x08035134   0x08035134   0x00000004   Code   RO         1909    .ARM.Collect$$$$00000004  mc_w.l(entry5.o)
    0x08035138   0x08035138   0x00000000   Code   RO         1911    .ARM.Collect$$$$00000008  mc_w.l(entry7b.o)
    0x08035138   0x08035138   0x00000000   Code   RO         1913    .ARM.Collect$$$$0000000A  mc_w.l(entry8b.o)
    0x08035138   0x08035138   0x00000008   Code   RO         1914    .ARM.Collect$$$$0000000B  mc_w.l(entry9a.o)
    0x08035140   0x08035140   0x00000000   Code   RO         1916    .ARM.Collect$$$$0000000D  mc_w.l(entry10a.o)
    0x08035140   0x08035140   0x00000000   Code   RO         1918    .ARM.Collect$$$$0000000F  mc_w.l(entry11a.o)
    0x08035140   0x08035140   0x00000004   Code   RO         1907    .ARM.Collect$$$$00002712  mc_w.l(entry2.o)
    0x08035144   0x08035144   0x00000096   Code   RO         1343    .emb_text           port.o
    0x080351da   0x080351da   0x00000002   PAD
    0x080351dc   0x080351dc   0x00000024   Code   RO            4    .text               startup_stm32f10x_hd.o
    0x08035200   0x08035200   0x000007ec   Code   RO           10    .text               application.o
    0x080359ec   0x080359ec   0x000000f8   Code   RO          376    .text               main.o
    0x08035ae4   0x08035ae4   0x00000020   Code   RO          406    .text               stm32f10x_it.o
    0x08035b04   0x08035b04   0x000004cc   Code   RO          431    .text               test_app_func.o
    0x08035fd0   0x08035fd0   0x00000078   Code   RO          465    .text               test_msg_push.o
    0x08036048   0x08036048   0x000007e4   Code   RO          480    .text               test_payload_cam_emu.o
    0x0803682c   0x0803682c   0x00000354   Code   RO          500    .text               test_payload_gimbal_emu.o
    0x08036b80   0x08036b80   0x0000005c   Code   RO          520    .text               test_osdk_func.o
    0x08036bdc   0x08036bdc   0x000002fc   Code   RO          538    .text               test_positioning.o
    0x08036ed8   0x08036ed8   0x00000002   Code   RO          566    .text               sys.o
    0x08036eda   0x08036eda   0x00000002   PAD
    0x08036edc   0x08036edc   0x000000f0   Code   RO          578    .text               pps.o
    0x08036fcc   0x08036fcc   0x000000b8   Code   RO          596    .text               hotshoe.o
    0x08037084   0x08037084   0x00000104   Code   RO          610    .text               bsp.o
    0x08037188   0x08037188   0x0000058a   Code   RO          629    .text               cam_task.o
    0x08037712   0x08037712   0x00000002   PAD
    0x08037714   0x08037714   0x00000130   Code   RO          645    .text               key_task.o
    0x08037844   0x08037844   0x0000017c   Code   RO          661    .text               oled_task.o
    0x080379c0   0x080379c0   0x000001d0   Code   RO          677    .text               rgb_task.o
    0x08037b90   0x08037b90   0x000004cc   Code   RO          696    .text               runinit_task.o
    0x0803805c   0x0803805c   0x00000328   Code   RO          713    .text               trigger_task.o
    0x08038384   0x08038384   0x00000164   Code   RO          736    .text               u2rece_task.o
    0x080384e8   0x080384e8   0x00000228   Code   RO          777    .text               u2send_task.o
    0x08038710   0x08038710   0x000000c0   Code   RO          794    .text               fan_task.o
    0x080387d0   0x080387d0   0x00000314   Code   RO          814    .text               cocoguojia_24c02.o
    0x08038ae4   0x08038ae4   0x000003c0   Code   RO          829    .text               cocoguojia_ds18b20.o
    0x08038ea4   0x08038ea4   0x00000048   Code   RO          841    .text               cocoguojia_init.o
    0x08038eec   0x08038eec   0x00001220   Code   RO          853    .text               cocoguojia_oled.o
    0x0803a10c   0x0803a10c   0x00000048   Code   RO          874    .text               cocoguojia_rgbled.o
    0x0803a154   0x0803a154   0x000000c8   Code   RO          886    .text               cocoguojia_tim1pwm.o
    0x0803a21c   0x0803a21c   0x00000558   Code   RO          898    .text               cocoguojia_usart.o
    0x0803a774   0x0803a774   0x000000d8   Code   RO          923    .text               cocoguojia_usart_ringbuffer.o
    0x0803a84c   0x0803a84c   0x000002cc   Code   RO          935    .text               cocoguojia_sdcard.o
    0x0803ab18   0x0803ab18   0x000013c4   Code   RO          958    .text               cocoguojia_sdio.o
    0x0803bedc   0x0803bedc   0x000002f8   Code   RO          977    .text               psdk_upper.o
    0x0803c1d4   0x0803c1d4   0x0000046c   Code   RO          993    .text               psdk_app_func.o
    0x0803c640   0x0803c640   0x00000128   Code   RO         1009    .text               psdk_msg_subcribe.o
    0x0803c768   0x0803c768   0x000005b4   Code   RO         1024    .text               psdk_payload_camera.o
    0x0803cd1c   0x0803cd1c   0x000001a0   Code   RO         1040    .text               psdk_payload_gimbal.o
    0x0803cebc   0x0803cebc   0x000000d8   Code   RO         1056    .text               psdk_osdk_func.o
    0x0803cf94   0x0803cf94   0x0000006c   Code   RO         1071    .text               psdk_positioning.o
    0x0803d000   0x0803d000   0x00000dc8   Code   RO         1083    .text               psdk_aes.o
    0x0803ddc8   0x0803ddc8   0x000000d8   Code   RO         1097    .text               psdk_crc.o
    0x0803dea0   0x0803dea0   0x000008c4   Code   RO         1112    .text               psdk_md5.o
    0x0803e764   0x0803e764   0x000006e8   Code   RO         1136    .text               psdk_proto.o
    0x0803ee4c   0x0803ee4c   0x00000054   Code   RO         1150    .text               psdk_debug.o
    0x0803eea0   0x0803eea0   0x000000c4   Code   RO         1163    .text               psdk_proto_parse.o
    0x0803ef64   0x0803ef64   0x00000120   Code   RO         1175    .text               psdk_arch_sys.o
    0x0803f084   0x0803f084   0x00000888   Code   RO         1187    .text               cmsis_os.o
    0x0803f90c   0x0803f90c   0x0000034c   Code   RO         1230    .text               event_groups.o
    0x0803fc58   0x0803fc58   0x00000088   Code   RO         1264    .text               list.o
    0x0803fce0   0x0803fce0   0x000009b8   Code   RO         1276    .text               queue.o
    0x08040698   0x08040698   0x0000139c   Code   RO         1291    .text               tasks.o
    0x08041a34   0x08041a34   0x000001d8   Code   RO         1316    .text               heap_4.o
    0x08041c0c   0x08041c0c   0x000001c4   Code   RO         1344    .text               port.o
    0x08041dd0   0x08041dd0   0x00000174   Code   RO         1373    .text               system_stm32f10x.o
    0x08041f44   0x08041f44   0x000000b8   Code   RO         1401    .text               misc.o
    0x08041ffc   0x08041ffc   0x000001e8   Code   RO         1425    .text               stm32f10x_dma.o
    0x080421e4   0x080421e4   0x000000ec   Code   RO         1437    .text               stm32f10x_exti.o
    0x080422d0   0x080422d0   0x00000298   Code   RO         1479    .text               stm32f10x_gpio.o
    0x08042568   0x08042568   0x000002f4   Code   RO         1491    .text               stm32f10x_rcc.o
    0x0804285c   0x0804285c   0x000001b0   Code   RO         1505    .text               stm32f10x_sdio.o
    0x08042a0c   0x08042a0c   0x00000c2a   Code   RO         1517    .text               stm32f10x_tim.o
    0x08043636   0x08043636   0x00000002   PAD
    0x08043638   0x08043638   0x0000039c   Code   RO         1529    .text               stm32f10x_usart.o
    0x080439d4   0x080439d4   0x00000160   Code   RO         1541    .text               diskio.o
    0x08043b34   0x08043b34   0x00002998   Code   RO         1561    .text               ff.o
    0x080464cc   0x080464cc   0x000000a4   Code   RO         1579    .text               cc936.o
    0x08046570   0x08046570   0x00000062   Code   RO         1596    .text               mc_w.l(uldiv.o)
    0x080465d2   0x080465d2   0x00000002   PAD
    0x080465d4   0x080465d4   0x0000008c   Code   RO         1601    .text               mc_w.l(localtime_r.o)
    0x08046660   0x08046660   0x000000a8   Code   RO         1604    .text               mc_w.l(mktime.o)
    0x08046708   0x08046708   0x00000024   Code   RO         1607    .text               mc_w.l(memcpya.o)
    0x0804672c   0x0804672c   0x00000024   Code   RO         1609    .text               mc_w.l(memseta.o)
    0x08046750   0x08046750   0x00000018   Code   RO         1611    .text               mc_w.l(strncpy.o)
    0x08046768   0x08046768   0x0000000e   Code   RO         1613    .text               mc_w.l(strlen.o)
    0x08046776   0x08046776   0x0000001c   Code   RO         1615    .text               mc_w.l(strcmp.o)
    0x08046792   0x08046792   0x00000012   Code   RO         1617    .text               mc_w.l(strcpy.o)
    0x080467a4   0x080467a4   0x0000001a   Code   RO         1882    .text               mc_w.l(atoi.o)
    0x080467be   0x080467be   0x00000064   Code   RO         1884    .text               mf_w.l(fmul.o)
    0x08046822   0x08046822   0x0000014e   Code   RO         1886    .text               mf_w.l(dadd.o)
    0x08046970   0x08046970   0x000000e4   Code   RO         1888    .text               mf_w.l(dmul.o)
    0x08046a54   0x08046a54   0x000000de   Code   RO         1890    .text               mf_w.l(ddiv.o)
    0x08046b32   0x08046b32   0x00000022   Code   RO         1892    .text               mf_w.l(dflti.o)
    0x08046b54   0x08046b54   0x0000001a   Code   RO         1894    .text               mf_w.l(dfltui.o)
    0x08046b6e   0x08046b6e   0x00000032   Code   RO         1896    .text               mf_w.l(ffixi.o)
    0x08046ba0   0x08046ba0   0x0000003e   Code   RO         1898    .text               mf_w.l(dfixi.o)
    0x08046bde   0x08046bde   0x00000032   Code   RO         1900    .text               mf_w.l(dfixui.o)
    0x08046c10   0x08046c10   0x00000030   Code   RO         1902    .text               mf_w.l(cdcmple.o)
    0x08046c40   0x08046c40   0x00000038   Code   RO         1904    .text               mf_w.l(d2f.o)
    0x08046c78   0x08046c78   0x0000002c   Code   RO         1923    .text               mc_w.l(uidiv.o)
    0x08046ca4   0x08046ca4   0x0000001e   Code   RO         1925    .text               mc_w.l(llshl.o)
    0x08046cc2   0x08046cc2   0x00000020   Code   RO         1927    .text               mc_w.l(llushr.o)
    0x08046ce2   0x08046ce2   0x00000024   Code   RO         1929    .text               mc_w.l(llsshr.o)
    0x08046d06   0x08046d06   0x00000070   Code   RO         1941    .text               mc_w.l(strtol.o)
    0x08046d76   0x08046d76   0x00000000   Code   RO         1943    .text               mc_w.l(iusefp.o)
    0x08046d76   0x08046d76   0x0000006e   Code   RO         1944    .text               mf_w.l(fepilogue.o)
    0x08046de4   0x08046de4   0x000000ba   Code   RO         1946    .text               mf_w.l(depilogue.o)
    0x08046e9e   0x08046e9e   0x00000030   Code   RO         1948    .text               mf_w.l(dfixul.o)
    0x08046ece   0x08046ece   0x00000002   PAD
    0x08046ed0   0x08046ed0   0x00000030   Code   RO         1950    .text               mf_w.l(cdrcmple.o)
    0x08046f00   0x08046f00   0x00000024   Code   RO         1952    .text               mc_w.l(init.o)
    0x08046f24   0x08046f24   0x00000008   Code   RO         1955    .text               mc_w.l(ctype_o.o)
    0x08046f2c   0x08046f2c   0x0000009e   Code   RO         1983    .text               mc_w.l(_strtoul.o)
    0x08046fca   0x08046fca   0x0000001c   Code   RO         1986    .text               mc_w.l(_chval.o)
    0x08046fe6   0x08046fe6   0x00000056   Code   RO         1996    .text               mc_w.l(__dczerorl2.o)
    0x0804703c   0x0804703c   0x00000028   Code   RO         1856    i.__0sprintf        mc_w.l(printfa.o)
    0x08047064   0x08047064   0x0000002c   Code   RO         1859    i.__0vsnprintf      mc_w.l(printfa.o)
    0x08047090   0x08047090   0x00000008   Code   RO         1934    i.__aeabi_errno_addr  mc_w.l(errno.o)
    0x08047098   0x08047098   0x0000000e   Code   RO         1990    i.__scatterload_copy  mc_w.l(handlers.o)
    0x080470a6   0x080470a6   0x00000002   Code   RO         1991    i.__scatterload_null  mc_w.l(handlers.o)
    0x080470a8   0x080470a8   0x0000000e   Code   RO         1992    i.__scatterload_zeroinit  mc_w.l(handlers.o)
    0x080470b6   0x080470b6   0x00000002   PAD
    0x080470b8   0x080470b8   0x00000184   Code   RO         1861    i._fp_digits        mc_w.l(printfa.o)
    0x0804723c   0x0804723c   0x000006dc   Code   RO         1862    i._printf_core      mc_w.l(printfa.o)
    0x08047918   0x08047918   0x00000024   Code   RO         1863    i._printf_post_padding  mc_w.l(printfa.o)
    0x0804793c   0x0804793c   0x0000002e   Code   RO         1864    i._printf_pre_padding  mc_w.l(printfa.o)
    0x0804796a   0x0804796a   0x00000016   Code   RO         1865    i._snputc           mc_w.l(printfa.o)
    0x08047980   0x08047980   0x0000000a   Code   RO         1866    i._sputc            mc_w.l(printfa.o)
    0x0804798a   0x0804798a   0x00000056   Data   RO           12    .constdata          application.o
    0x080479e0   0x080479e0   0x00000114   Data   RO          377    .constdata          main.o
    0x08047af4   0x08047af4   0x00000270   Data   RO          433    .constdata          test_app_func.o
    0x08047d64   0x08047d64   0x00000001   Data   RO          434    .constdata          test_app_func.o
    0x08047d65   0x08047d65   0x00000036   Data   RO          435    .constdata          test_app_func.o
    0x08047d9b   0x08047d9b   0x00000001   PAD
    0x08047d9c   0x08047d9c   0x00000030   Data   RO          467    .constdata          test_msg_push.o
    0x08047dcc   0x08047dcc   0x00000090   Data   RO          481    .constdata          test_payload_cam_emu.o
    0x08047e5c   0x08047e5c   0x0000017a   Data   RO          482    .constdata          test_payload_cam_emu.o
    0x08047fd6   0x08047fd6   0x00000002   PAD
    0x08047fd8   0x08047fd8   0x00000020   Data   RO          501    .constdata          test_payload_gimbal_emu.o
    0x08047ff8   0x08047ff8   0x000000b3   Data   RO          502    .constdata          test_payload_gimbal_emu.o
    0x080480ab   0x080480ab   0x00000001   PAD
    0x080480ac   0x080480ac   0x00000004   Data   RO          521    .constdata          test_osdk_func.o
    0x080480b0   0x080480b0   0x0000001f   Data   RO          522    .constdata          test_osdk_func.o
    0x080480cf   0x080480cf   0x00000035   Data   RO          540    .constdata          test_positioning.o
    0x08048104   0x08048104   0x00000009   Data   RO          630    .constdata          cam_task.o
    0x0804810d   0x0804810d   0x00000009   Data   RO          646    .constdata          key_task.o
    0x08048116   0x08048116   0x0000000a   Data   RO          662    .constdata          oled_task.o
    0x08048120   0x08048120   0x00000009   Data   RO          678    .constdata          rgb_task.o
    0x08048129   0x08048129   0x0000000d   Data   RO          697    .constdata          runinit_task.o
    0x08048136   0x08048136   0x0000000d   Data   RO          714    .constdata          trigger_task.o
    0x08048143   0x08048143   0x0000000c   Data   RO          738    .constdata          u2rece_task.o
    0x0804814f   0x0804814f   0x0000000c   Data   RO          778    .constdata          u2send_task.o
    0x0804815b   0x0804815b   0x00000009   Data   RO          795    .constdata          fan_task.o
    0x08048164   0x08048164   0x000005f0   Data   RO          855    .constdata          cocoguojia_oled.o
    0x08048754   0x08048754   0x00000030   Data   RO          979    .constdata          psdk_upper.o
    0x08048784   0x08048784   0x00000071   Data   RO          994    .constdata          psdk_app_func.o
    0x080487f5   0x080487f5   0x00000003   PAD
    0x080487f8   0x080487f8   0x00000060   Data   RO         1011    .constdata          psdk_msg_subcribe.o
    0x08048858   0x08048858   0x00000108   Data   RO         1026    .constdata          psdk_payload_camera.o
    0x08048960   0x08048960   0x00000048   Data   RO         1042    .constdata          psdk_payload_gimbal.o
    0x080489a8   0x080489a8   0x00000008   Data   RO         1057    .constdata          psdk_osdk_func.o
    0x080489b0   0x080489b0   0x0000083c   Data   RO         1084    .constdata          psdk_aes.o
    0x080491ec   0x080491ec   0x00000300   Data   RO         1098    .constdata          psdk_crc.o
    0x080494ec   0x080494ec   0x0000002f   Data   RO         1137    .constdata          psdk_proto.o
    0x0804951b   0x0804951b   0x00000017   Data   RO         1151    .constdata          psdk_debug.o
    0x08049532   0x08049532   0x00000002   PAD
    0x08049534   0x08049534   0x00000068   Data   RO         1562    .constdata          ff.o
    0x0804959c   0x0804959c   0x0002b0c0   Data   RO         1580    .constdata          cc936.o
    0x0807465c   0x0807465c   0x0000000c   Data   RO         1602    .constdata          mc_w.l(localtime_r.o)
    0x08074668   0x08074668   0x0000000c   Data   RO         1605    .constdata          mc_w.l(mktime.o)
    0x08074674   0x08074674   0x00000081   Data   RO         1956    .constdata          mc_w.l(ctype_o.o)
    0x080746f5   0x080746f5   0x00000003   PAD
    0x080746f8   0x080746f8   0x00000004   Data   RO         1957    .constdata          mc_w.l(ctype_o.o)
    0x080746fc   0x080746fc   0x000000f2   Data   RO           13    .conststring        application.o
    0x080747ee   0x080747ee   0x00000002   PAD
    0x080747f0   0x080747f0   0x000000b7   Data   RO          378    .conststring        main.o
    0x080748a7   0x080748a7   0x00000001   PAD
    0x080748a8   0x080748a8   0x000000da   Data   RO          436    .conststring        test_app_func.o
    0x08074982   0x08074982   0x00000002   PAD
    0x08074984   0x08074984   0x000000a0   Data   RO          995    .conststring        psdk_app_func.o
    0x08074a24   0x08074a24   0x00000052   Data   RO         1138    .conststring        psdk_proto.o
    0x08074a76   0x08074a76   0x00000002   PAD
    0x08074a78   0x08074a78   0x00000020   Data   RO         1988    Region$$Table       anon$$obj.o


    Execution Region RW_IRAM1 (Exec base: 0x20000000, Load base: 0x08074a98, Size: 0x0000f4f0, Max: 0x00010000, ABSOLUTE, COMPRESSED[0x000009b4])

    Exec Addr    Load Addr    Size         Type   Attr      Idx    E Section Name        Object

    0x20000000   COMPRESSED   0x0000002b   Data   RW           14    .data               application.o
    0x2000002b   COMPRESSED   0x00000001   PAD
    0x2000002c   COMPRESSED   0x00000040   Data   RW          379    .data               main.o
    0x2000006c   COMPRESSED   0x0000006c   Data   RW          437    .data               test_app_func.o
    0x200000d8   COMPRESSED   0x00000050   Data   RW          483    .data               test_payload_cam_emu.o
    0x20000128   COMPRESSED   0x00000016   Data   RW          503    .data               test_payload_gimbal_emu.o
    0x2000013e   COMPRESSED   0x00000002   PAD
    0x20000140   COMPRESSED   0x00000008   Data   RW          542    .data               test_positioning.o
    0x20000148   COMPRESSED   0x00000001   Data   RW          543    .data               test_positioning.o
    0x20000149   COMPRESSED   0x00000003   PAD
    0x2000014c   COMPRESSED   0x0000000c   Data   RW          579    .data               pps.o
    0x20000158   COMPRESSED   0x00000004   Data   RW          597    .data               hotshoe.o
    0x2000015c   COMPRESSED   0x00000004   Data   RW          631    .data               cam_task.o
    0x20000160   COMPRESSED   0x00000004   Data   RW          647    .data               key_task.o
    0x20000164   COMPRESSED   0x00000004   Data   RW          663    .data               oled_task.o
    0x20000168   COMPRESSED   0x00000008   Data   RW          679    .data               rgb_task.o
    0x20000170   COMPRESSED   0x00000004   Data   RW          699    .data               runinit_task.o
    0x20000174   COMPRESSED   0x00000010   Data   RW          715    .data               trigger_task.o
    0x20000184   COMPRESSED   0x00000004   Data   RW          741    .data               u2rece_task.o
    0x20000188   COMPRESSED   0x00000002   Data   RW          744    .data               u2rece_task.o
    0x2000018a   COMPRESSED   0x00000001   Data   RW          745    .data               u2rece_task.o
    0x2000018b   COMPRESSED   0x00000001   PAD
    0x2000018c   COMPRESSED   0x00000016   Data   RW          746    .data               u2rece_task.o
    0x200001a2   COMPRESSED   0x00000006   Data   RW          747    .data               u2rece_task.o
    0x200001a8   COMPRESSED   0x00000001   Data   RW          748    .data               u2rece_task.o
    0x200001a9   COMPRESSED   0x00000001   Data   RW          750    .data               u2rece_task.o
    0x200001aa   COMPRESSED   0x00000001   Data   RW          751    .data               u2rece_task.o
    0x200001ab   COMPRESSED   0x00000001   Data   RW          754    .data               u2rece_task.o
    0x200001ac   COMPRESSED   0x00000001   Data   RW          755    .data               u2rece_task.o
    0x200001ad   COMPRESSED   0x00000003   PAD
    0x200001b0   COMPRESSED   0x00000004   Data   RW          756    .data               u2rece_task.o
    0x200001b4   COMPRESSED   0x00000001   Data   RW          757    .data               u2rece_task.o
    0x200001b5   COMPRESSED   0x00000001   Data   RW          758    .data               u2rece_task.o
    0x200001b6   COMPRESSED   0x00000002   PAD
    0x200001b8   COMPRESSED   0x00000004   Data   RW          779    .data               u2send_task.o
    0x200001bc   COMPRESSED   0x00000008   Data   RW          796    .data               fan_task.o
    0x200001c4   COMPRESSED   0x00000001   Data   RW          797    .data               fan_task.o
    0x200001c5   COMPRESSED   0x00000008   Data   RW          815    .data               cocoguojia_24c02.o
    0x200001cd   COMPRESSED   0x00000ac5   Data   RW          856    .data               cocoguojia_oled.o
    0x20000c92   COMPRESSED   0x00000002   PAD
    0x20000c94   COMPRESSED   0x00000010   Data   RW          900    .data               cocoguojia_usart.o
    0x20000ca4   COMPRESSED   0x00000168   Data   RW          937    .data               cocoguojia_sdcard.o
    0x20000e0c   COMPRESSED   0x00000014   Data   RW          960    .data               cocoguojia_sdio.o
    0x20000e20   COMPRESSED   0x00000004   Data   RW          980    .data               psdk_upper.o
    0x20000e24   COMPRESSED   0x00000018   Data   RW          996    .data               psdk_app_func.o
    0x20000e3c   COMPRESSED   0x00000001   Data   RW         1027    .data               psdk_payload_camera.o
    0x20000e3d   COMPRESSED   0x00000001   Data   RW         1043    .data               psdk_payload_gimbal.o
    0x20000e3e   COMPRESSED   0x00000002   PAD
    0x20000e40   COMPRESSED   0x00000004   Data   RW         1058    .data               psdk_osdk_func.o
    0x20000e44   COMPRESSED   0x00000400   Data   RW         1099    .data               psdk_crc.o
    0x20001244   COMPRESSED   0x0000003c   Data   RW         1293    .data               tasks.o
    0x20001280   COMPRESSED   0x00000018   Data   RW         1318    .data               heap_4.o
    0x20001298   COMPRESSED   0x0000000c   Data   RW         1345    .data               port.o
    0x200012a4   COMPRESSED   0x00000014   Data   RW         1374    .data               system_stm32f10x.o
    0x200012b8   COMPRESSED   0x00000014   Data   RW         1492    .data               stm32f10x_rcc.o
    0x200012cc   COMPRESSED   0x0000000c   Data   RW         1563    .data               ff.o
    0x200012d8   COMPRESSED   0x00000004   Data   RW         1937    .data               mc_w.l(errno.o)
    0x200012dc        -       0x00000d74   Zero   RW           11    .bss                application.o
    0x20002050        -       0x00000400   Zero   RW          432    .bss                test_app_func.o
    0x20002450        -       0x00000044   Zero   RW          466    .bss                test_msg_push.o
    0x20002494        -       0x00000155   Zero   RW          539    .bss                test_positioning.o
    0x200025e9   COMPRESSED   0x00000001   PAD
    0x200025ea        -       0x0000000c   Zero   RW          737    .bss                u2rece_task.o
    0x200025f6   COMPRESSED   0x00000002   PAD
    0x200025f8        -       0x00000c48   Zero   RW          899    .bss                cocoguojia_usart.o
    0x20003240        -       0x00002318   Zero   RW          936    .bss                cocoguojia_sdcard.o
    0x20005558        -       0x000000cc   Zero   RW          959    .bss                cocoguojia_sdio.o
    0x20005624        -       0x000000b5   Zero   RW          978    .bss                psdk_upper.o
    0x200056d9   COMPRESSED   0x00000003   PAD
    0x200056dc        -       0x00000030   Zero   RW         1010    .bss                psdk_msg_subcribe.o
    0x2000570c        -       0x00000090   Zero   RW         1025    .bss                psdk_payload_camera.o
    0x2000579c        -       0x00000020   Zero   RW         1041    .bss                psdk_payload_gimbal.o
    0x200057bc        -       0x00000040   Zero   RW         1277    .bss                queue.o
    0x200057fc        -       0x000000f0   Zero   RW         1292    .bss                tasks.o
    0x200058ec        -       0x00009800   Zero   RW         1317    .bss                heap_4.o
    0x2000f0ec   COMPRESSED   0x00000004   PAD
    0x2000f0f0        -       0x00000400   Zero   RW            1    STACK               startup_stm32f10x_hd.o


==============================================================================

Image component sizes


      Code (inc. data)   RO Data    RW Data    ZI Data      Debug   Object Name

      2028        486        328         43       3444     346899   application.o
       260         24          0          0          0       4091   bsp.o
      1418         76          9          4          0       2436   cam_task.o
       164         18     176320          0          0       1873   cc936.o
      2184         10          0          0          0      26088   cmsis_os.o
       788         14          0          8          0       4814   cocoguojia_24c02.o
       960         18          0          0          0       3243   cocoguojia_ds18b20.o
        72          8          0          0          0        788   cocoguojia_init.o
      4640        512       1520       2757          0      11206   cocoguojia_oled.o
        72         10          0          0          0        572   cocoguojia_rgbled.o
       716         38          0        360       8984       6434   cocoguojia_sdcard.o
      5060        104          0         20        204      25585   cocoguojia_sdio.o
       200          8          0          0          0       1023   cocoguojia_tim1pwm.o
      1368         66          0         16       3144       9248   cocoguojia_usart.o
       216          0          0          0          0       2281   cocoguojia_usart_ringbuffer.o
       352          8          0          0          0       4083   diskio.o
       844          4          0          0          0      15318   event_groups.o
       192         66          9          9          0       1054   fan_task.o
     10648        114        104         12          0      35664   ff.o
       472         10          0         24      38912       6336   heap_4.o
       184         10          0          4          0       1888   hotshoe.o
       304         60          9          4          0       1080   key_task.o
       136          0          0          0          0       1902   list.o
       248         16        459         64          0       9194   main.o
       184         12          0          0          0       1985   misc.o
       380         58         10          4          0       1174   oled_task.o
       602         32          0         12          0       8059   port.o
       240         14          0         12          0       1844   pps.o
      3528         56       2108          0          0       6379   psdk_aes.o
      1132         20        273         24          0       7461   psdk_app_func.o
       288         36          0          0          0       3041   psdk_arch_sys.o
       216         48        768       1024          0       2291   psdk_crc.o
        84         66         23          0          0       1033   psdk_debug.o
      2244        262          0          0          0       6066   psdk_md5.o
       296         10         96          0         48       5100   psdk_msg_subcribe.o
       216         10          8          4          0       2392   psdk_osdk_func.o
      1460         18        264          1        144      12054   psdk_payload_camera.o
       416         12         72          1         32       4626   psdk_payload_gimbal.o
       108          0          0          0          0       1265   psdk_positioning.o
      1768        288        129          0          0       7320   psdk_proto.o
       196          0          0          0          0       2011   psdk_proto_parse.o
       760         12         48          4        181       6171   psdk_upper.o
      2488          8          0          0         64      17045   queue.o
       464         92          9          8          0       1390   rgb_task.o
      1228        108         13          4          0       2571   runinit_task.o
        36          8        304          0       1024        872   startup_stm32f10x_hd.o
       488         10          0          0          0       4854   stm32f10x_dma.o
       236         10          0          0          0       2475   stm32f10x_exti.o
       664         36          0          0          0       6269   stm32f10x_gpio.o
        32          0          0          0          0       1151   stm32f10x_it.o
       756         32          0         20          0       9416   stm32f10x_rcc.o
       432         20          0          0          0       7348   stm32f10x_sdio.o
      3114         84          0          0          0      25160   stm32f10x_tim.o
       924         20          0          0          0       9232   stm32f10x_usart.o
         2          0          0          0          0        415   sys.o
       372         34          0         20          0       1959   system_stm32f10x.o
      5020        104          0         60        240      27776   tasks.o
      1228        608        897        108       1024       3611   test_app_func.o
       120          4         48          0         68       3148   test_msg_push.o
        92         50         35          0          0       1388   test_osdk_func.o
      2020        646        522         80          0      11143   test_payload_cam_emu.o
       852        326        211         22          0       4068   test_payload_gimbal_emu.o
       764         88         53          9        341       5111   test_positioning.o
       808        104         13         16          0       2048   trigger_task.o
       356         66         12         46         12       3193   u2rece_task.o
       552        144         12          4          0       1674   u2send_task.o

    ----------------------------------------------------------------------
     70700       5236     184734       4824      57876     756689   Object Totals
         0          0         32          0          0          0   (incl. Generated)
         8          0         16         16         10          0   (incl. Padding)

    ----------------------------------------------------------------------

      Code (inc. data)   RO Data    RW Data    ZI Data      Debug   Library Member Name

        86          0          0          0          0          0   __dczerorl2.o
        28          0          0          0          0         68   _chval.o
       158          0          0          0          0         92   _strtoul.o
        26          0          0          0          0         80   atoi.o
         8          4        133          0          0         68   ctype_o.o
         0          0          0          0          0          0   entry.o
         0          0          0          0          0          0   entry10a.o
         0          0          0          0          0          0   entry11a.o
         8          4          0          0          0          0   entry2.o
         4          0          0          0          0          0   entry5.o
         0          0          0          0          0          0   entry7b.o
         0          0          0          0          0          0   entry8b.o
         8          4          0          0          0          0   entry9a.o
         8          4          0          4          0         68   errno.o
        30          0          0          0          0          0   handlers.o
        36          8          0          0          0         68   init.o
         0          0          0          0          0          0   iusefp.o
        30          0          0          0          0         68   llshl.o
        36          0          0          0          0         68   llsshr.o
        32          0          0          0          0         68   llushr.o
       140          6         12          0          0         76   localtime_r.o
        36          0          0          0          0         68   memcpya.o
        36          0          0          0          0        108   memseta.o
       168         18         12          0          0         80   mktime.o
      2342         90          0          0          0        668   printfa.o
        28          0          0          0          0         76   strcmp.o
        18          0          0          0          0         68   strcpy.o
        14          0          0          0          0         68   strlen.o
        24          0          0          0          0         76   strncpy.o
       112          0          0          0          0         88   strtol.o
        44          0          0          0          0         80   uidiv.o
        98          0          0          0          0         92   uldiv.o
        48          0          0          0          0         68   cdcmple.o
        48          0          0          0          0         68   cdrcmple.o
        56          0          0          0          0         88   d2f.o
       334          0          0          0          0        148   dadd.o
       222          0          0          0          0        100   ddiv.o
       186          0          0          0          0        176   depilogue.o
        62          0          0          0          0         80   dfixi.o
        50          0          0          0          0         76   dfixui.o
        48          0          0          0          0         68   dfixul.o
        34          0          0          0          0         76   dflti.o
        26          0          0          0          0         76   dfltui.o
       228          0          0          0          0         96   dmul.o
       110          0          0          0          0        168   fepilogue.o
        50          0          0          0          0         68   ffixi.o
       100          0          0          0          0         76   fmul.o

    ----------------------------------------------------------------------
      5166        138        160          4          0       3628   Library Totals
         6          0          3          0          0          0   (incl. Padding)

    ----------------------------------------------------------------------

      Code (inc. data)   RO Data    RW Data    ZI Data      Debug   Library Name

      3558        138        157          4          0       2196   mc_w.l
      1602          0          0          0          0       1432   mf_w.l

    ----------------------------------------------------------------------
      5166        138        160          4          0       3628   Library Totals

    ----------------------------------------------------------------------

==============================================================================


      Code (inc. data)   RO Data    RW Data    ZI Data      Debug   

     75866       5374     184894       4828      57876     752281   Grand Totals
     75866       5374     184894       2484      57876     752281   ELF Image Totals (compressed)
     75866       5374     184894       2484          0          0   ROM Totals

==============================================================================

    Total RO  Size (Code + RO Data)               260760 ( 254.65kB)
    Total RW  Size (RW Data + ZI Data)             62704 (  61.23kB)
    Total ROM Size (Code + RO Data + RW Data)     263244 ( 257.07kB)

==============================================================================

